
Discarded input sections

 .data          0x0000000000000000        0x0 arch/arm/cpu/armv8/start.o
 .bss           0x0000000000000000        0x0 arch/arm/cpu/armv8/start.o
 .text.sdelay   0x0000000000000000        0xc arch/arm/cpu/armv8/built-in.o
 .text.timer_read_counter
                0x0000000000000000        0xc arch/arm/cpu/armv8/built-in.o
 .text.usec2ticks
                0x0000000000000000       0x44 arch/arm/cpu/armv8/built-in.o
 .text.set_one_region
                0x0000000000000000       0xd4 arch/arm/cpu/armv8/built-in.o
 .text.flush_dcache_all
                0x0000000000000000       0x14 arch/arm/cpu/armv8/built-in.o
 .text.arch_get_page_table
                0x0000000000000000       0x20 arch/arm/cpu/armv8/built-in.o
 .text.mmu_set_region_dcache_behaviour
                0x0000000000000000       0xa8 arch/arm/cpu/armv8/built-in.o
 .text.mmu_change_region_attr
                0x0000000000000000       0xe8 arch/arm/cpu/armv8/built-in.o
 .text.icache_status
                0x0000000000000000       0x34 arch/arm/cpu/armv8/built-in.o
 .rodata.arch_get_page_table.str1.1
                0x0000000000000000       0x1e arch/arm/cpu/armv8/built-in.o
 .rodata.mmu_set_region_dcache_behaviour.str1.1
                0x0000000000000000       0x20 arch/arm/cpu/armv8/built-in.o
 .rodata.set_one_region.str1.1
                0x0000000000000000       0x2e arch/arm/cpu/armv8/built-in.o
 .data          0x0000000000000000        0x0 arch/arm/cpu/armv8/built-in.o
 .bss           0x0000000000000000        0x0 arch/arm/cpu/armv8/built-in.o
 .text.armv7_boot_nonsec_default
                0x0000000000000000        0x8 arch/arm/lib/built-in.o
 .text.reset_misc
                0x0000000000000000        0x4 arch/arm/lib/built-in.o
 .text.enable_caches
                0x0000000000000000        0xc arch/arm/lib/built-in.o
 .text.invalidate_dcache_range
                0x0000000000000000        0x4 arch/arm/lib/built-in.o
 .text.flush_dcache_range
                0x0000000000000000        0x4 arch/arm/lib/built-in.o
 .text.flush_dcache_all
                0x0000000000000000        0xc arch/arm/lib/built-in.o
 .text.check_cache_range
                0x0000000000000000       0x48 arch/arm/lib/built-in.o
 .text.fdt_psci
                0x0000000000000000        0x8 arch/arm/lib/built-in.o
 .rodata.check_cache_range.str1.1
                0x0000000000000000       0x35 arch/arm/lib/built-in.o
 .rodata.enable_caches.str1.1
                0x0000000000000000       0x1d arch/arm/lib/built-in.o
 .data          0x0000000000000000        0x0 arch/arm/lib/built-in.o
 .__end         0x0000000000000000        0x0 arch/arm/lib/built-in.o
 .__secure_end  0x0000000000000000        0x0 arch/arm/lib/built-in.o
 .__secure_stack_end
                0x0000000000000000        0x0 arch/arm/lib/built-in.o
 .__secure_stack_start
                0x0000000000000000        0x0 arch/arm/lib/built-in.o
 .__secure_start
                0x0000000000000000        0x0 arch/arm/lib/built-in.o
 .bss           0x0000000000000000        0x0 arch/arm/lib/built-in.o
 .text          0x0000000000000000        0x0 arch/arm/mach-sunxi/built-in.o
 .text.gtbus_init
                0x0000000000000000        0x4 arch/arm/mach-sunxi/built-in.o
 .text.clock_twi_onoff
                0x0000000000000000       0x90 arch/arm/mach-sunxi/built-in.o
 .text.sunxi_get_sram_id
                0x0000000000000000       0x30 arch/arm/mach-sunxi/built-in.o
 .text.mctl_await_completion
                0x0000000000000000       0x64 arch/arm/mach-sunxi/built-in.o
 .text.mctl_mem_matches
                0x0000000000000000       0x40 arch/arm/mach-sunxi/built-in.o
 .text.sunxi_gpio_get_cfgpin
                0x0000000000000000       0x34 arch/arm/mach-sunxi/built-in.o
 .text.sunxi_usb_phy_enable_squelch_detect
                0x0000000000000000       0xa8 arch/arm/mach-sunxi/built-in.o
 .text.sunxi_usb_phy_power_off
                0x0000000000000000       0x34 arch/arm/mach-sunxi/built-in.o
 .text.sunxi_usb_phy_vbus_detect
                0x0000000000000000       0x78 arch/arm/mach-sunxi/built-in.o
 .text.sunxi_usb_phy_id_detect
                0x0000000000000000       0x24 arch/arm/mach-sunxi/built-in.o
 .text.sunxi_usb_phy_remove
                0x0000000000000000       0x68 arch/arm/mach-sunxi/built-in.o
 .text.prcm_apb0_enable
                0x0000000000000000       0x24 arch/arm/mach-sunxi/built-in.o
 .text.prcm_apb0_disable
                0x0000000000000000       0x28 arch/arm/mach-sunxi/built-in.o
 .text.rsb_await_trans
                0x0000000000000000       0x80 arch/arm/mach-sunxi/built-in.o
 .text.rsb_do_trans
                0x0000000000000000       0x18 arch/arm/mach-sunxi/built-in.o
 .text.rsb_init
                0x0000000000000000       0xd8 arch/arm/mach-sunxi/built-in.o
 .text.rsb_set_device_address
                0x0000000000000000       0x30 arch/arm/mach-sunxi/built-in.o
 .text.rsb_write
                0x0000000000000000       0x48 arch/arm/mach-sunxi/built-in.o
 .text.rsb_read
                0x0000000000000000       0x6c arch/arm/mach-sunxi/built-in.o
 .text.clock_set_pll3
                0x0000000000000000       0x4c arch/arm/mach-sunxi/built-in.o
 .text.clock_set_pll3_factors
                0x0000000000000000       0x3c arch/arm/mach-sunxi/built-in.o
 .text.clock_set_pll5
                0x0000000000000000       0xf8 arch/arm/mach-sunxi/built-in.o
 .text.clock_set_pll10
                0x0000000000000000       0x5c arch/arm/mach-sunxi/built-in.o
 .text.clock_get_pll3
                0x0000000000000000       0x34 arch/arm/mach-sunxi/built-in.o
 .text.clock_get_mipi_pll
                0x0000000000000000       0x50 arch/arm/mach-sunxi/built-in.o
 .text.clock_set_de_mod_clock
                0x0000000000000000       0x50 arch/arm/mach-sunxi/built-in.o
 .rodata.mctl_await_completion.str1.1
                0x0000000000000000       0x1b arch/arm/mach-sunxi/built-in.o
 .data          0x0000000000000000       0x18 arch/arm/mach-sunxi/built-in.o
 .bss           0x0000000000000000        0x0 arch/arm/mach-sunxi/built-in.o
 .text          0x0000000000000000        0x0 board/sunxi/built-in.o
 .text.board_fit_config_name_match
                0x0000000000000000       0xbc board/sunxi/built-in.o
 .rodata.board_fit_config_name_match.str1.1
                0x0000000000000000       0x23 board/sunxi/built-in.o
 .data          0x0000000000000000        0x0 board/sunxi/built-in.o
 .bss           0x0000000000000000        0x0 board/sunxi/built-in.o
 .text          0x0000000000000000        0x0 cmd/built-in.o
 .text.sunxi_name_to_gpio
                0x0000000000000000       0x1c cmd/built-in.o
 .data          0x0000000000000000        0x0 cmd/built-in.o
 .bss           0x0000000000000000        0x0 cmd/built-in.o
 .text          0x0000000000000000        0x0 common/built-in.o
 .text.hash_progressive_lookup_algo
                0x0000000000000000       0x84 common/built-in.o
 .text.hash_parse_string
                0x0000000000000000       0x7c common/built-in.o
 .text.hash_block
                0x0000000000000000       0x88 common/built-in.o
 .text.unset_local_var
                0x0000000000000000       0xbc common/built-in.o
 .text.coloured_LED_init
                0x0000000000000000        0x4 common/built-in.o
 .text.red_led_on
                0x0000000000000000        0x4 common/built-in.o
 .text.red_led_off
                0x0000000000000000        0x4 common/built-in.o
 .text.green_led_on
                0x0000000000000000        0x4 common/built-in.o
 .text.green_led_off
                0x0000000000000000        0x4 common/built-in.o
 .text.yellow_led_on
                0x0000000000000000        0x4 common/built-in.o
 .text.yellow_led_off
                0x0000000000000000        0x4 common/built-in.o
 .text.blue_led_on
                0x0000000000000000        0x4 common/built-in.o
 .text.blue_led_off
                0x0000000000000000        0x4 common/built-in.o
 .text.arch_reserve_stacks
                0x0000000000000000        0x8 common/built-in.o
 .text.board_flash_wp_on
                0x0000000000000000        0x8 common/built-in.o
 .text.fixup_cpu
                0x0000000000000000        0x8 common/built-in.o
 .text.nanopi_read_extra_gpio
                0x0000000000000000       0xd0 common/built-in.o
 .text.env_flags_parse_varaccess_from_binflags
                0x0000000000000000       0x60 common/built-in.o
 .text.fdt_read_prop
                0x0000000000000000       0x48 common/built-in.o
 .text.fdt_getprop_u32_default
                0x0000000000000000       0x5c common/built-in.o
 .text.do_fixup_by_path_u32
                0x0000000000000000       0x28 common/built-in.o
 .text.do_fixup_by_prop
                0x0000000000000000       0xc8 common/built-in.o
 .text.do_fixup_by_prop_u32
                0x0000000000000000       0x28 common/built-in.o
 .text.do_fixup_by_compat
                0x0000000000000000       0xa8 common/built-in.o
 .text.do_fixup_by_compat_u32
                0x0000000000000000       0x28 common/built-in.o
 .text.fdt_increase_size
                0x0000000000000000       0x14 common/built-in.o
 .text.fdt_del_node_and_alias
                0x0000000000000000       0x5c common/built-in.o
 .text.fdt_node_offset_by_compat_reg
                0x0000000000000000       0xa0 common/built-in.o
 .text.fdt_alloc_phandle
                0x0000000000000000       0x6c common/built-in.o
 .text.fdt_set_phandle
                0x0000000000000000       0x6c common/built-in.o
 .text.fdt_create_phandle
                0x0000000000000000       0x78 common/built-in.o
 .text.fdt_set_node_status
                0x0000000000000000       0xd8 common/built-in.o
 .text.fdt_set_status_by_alias
                0x0000000000000000       0x40 common/built-in.o
 .text.fdt_verify_alias_address
                0x0000000000000000       0xdc common/built-in.o
 .text.fdt_get_base_address
                0x0000000000000000       0x64 common/built-in.o
 .text.fdt_read_range
                0x0000000000000000      0x154 common/built-in.o
 .text.fdt_setup_simplefb_node
                0x0000000000000000      0x1fc common/built-in.o
 .text.fdt_fixup_display
                0x0000000000000000       0xe8 common/built-in.o
 .text.mdio_free
                0x0000000000000000        0x4 common/built-in.o
 .text.mdio_register_seq
                0x0000000000000000       0x48 common/built-in.o
 .text.mdio_unregister
                0x0000000000000000       0x30 common/built-in.o
 .text.usb_submit_int_msg
                0x0000000000000000        0x4 common/built-in.o
 .text.usb_get_report
                0x0000000000000000       0x5c common/built-in.o
 .text.usb_get_class_descriptor
                0x0000000000000000       0x5c common/built-in.o
 .text.board_usb_init
                0x0000000000000000        0x8 common/built-in.o
 .text.board_usb_cleanup
                0x0000000000000000        0x8 common/built-in.o
 .text.hub_port_reset
                0x0000000000000000       0x2c common/built-in.o
 .text.usb_hub_probe
                0x0000000000000000       0x54 common/built-in.o
 .text.iomux_printdevs
                0x0000000000000000       0x7c common/built-in.o
 .text.splash_screen_prepare
                0x0000000000000000        0x8 common/built-in.o
 .text.menu_default_choice
                0x0000000000000000       0x20 common/built-in.o
 .text.overwrite_console
                0x0000000000000000        0x8 common/built-in.o
 .text.fgetc    0x0000000000000000       0x44 common/built-in.o
 .text.ftstc    0x0000000000000000       0x14 common/built-in.o
 .text.fputc    0x0000000000000000       0x14 common/built-in.o
 .text.fputs    0x0000000000000000       0x10 common/built-in.o
 .text.fprintf  0x0000000000000000       0xb4 common/built-in.o
 .text.confirm_yesno
                0x0000000000000000       0xd4 common/built-in.o
 .text.valloc   0x0000000000000000        0xc common/built-in.o
 .text.pvalloc  0x0000000000000000       0x10 common/built-in.o
 .text.cfree    0x0000000000000000        0x4 common/built-in.o
 .text.malloc_usable_size
                0x0000000000000000       0x44 common/built-in.o
 .text.mallopt  0x0000000000000000       0x5c common/built-in.o
 .text.memalign_simple
                0x0000000000000000       0x4c common/built-in.o
 .text.genimg_get_short_name
                0x0000000000000000       0x28 common/built-in.o
 .text.genimg_get_cat_name
                0x0000000000000000       0x78 common/built-in.o
 .text.genimg_get_cat_short_name
                0x0000000000000000       0x78 common/built-in.o
 .text.genimg_get_cat_count
                0x0000000000000000       0x1c common/built-in.o
 .text.genimg_get_cat_desc
                0x0000000000000000       0x1c common/built-in.o
 .text.genimg_get_type_short_name
                0x0000000000000000       0x10 common/built-in.o
 .text.genimg_get_comp_short_name
                0x0000000000000000       0x10 common/built-in.o
 .text.genimg_get_os_short_name
                0x0000000000000000       0x10 common/built-in.o
 .text.genimg_get_arch_short_name
                0x0000000000000000       0x10 common/built-in.o
 .text.fit_get_subimage_count
                0x0000000000000000       0x68 common/built-in.o
 .text.fit_get_timestamp
                0x0000000000000000       0x5c common/built-in.o
 .text.fit_image_get_data_offset
                0x0000000000000000       0x48 common/built-in.o
 .text.fit_image_get_data_size
                0x0000000000000000       0x48 common/built-in.o
 .text.fit_set_timestamp
                0x0000000000000000       0x3c common/built-in.o
 .text.fit_conf_find_compat
                0x0000000000000000      0x1a4 common/built-in.o
 .text.stdio_deregister
                0x0000000000000000       0x38 common/built-in.o
 .text.stdio_init
                0x0000000000000000       0x1c common/built-in.o
 .text.cli_simple_parse_line
                0x0000000000000000       0x98 common/built-in.o
 .text.cli_simple_run_command
                0x0000000000000000      0x148 common/built-in.o
 .text.cli_simple_loop
                0x0000000000000000       0x90 common/built-in.o
 .text.cli_simple_run_command_list
                0x0000000000000000       0x74 common/built-in.o
 .text.run_command_repeatable
                0x0000000000000000       0x20 common/built-in.o
 .rodata.env_flags_parse_varaccess_from_binflags.str1.1
                0x0000000000000000       0x2c common/built-in.o
 .rodata.fdt_set_node_status
                0x0000000000000000        0x4 common/built-in.o
 .rodata.fdt_create_phandle.str1.1
                0x0000000000000000       0x1a common/built-in.o
 .rodata.fdt_fixup_display.str1.1
                0x0000000000000000       0x1c common/built-in.o
 .rodata.fdt_read_range.str1.1
                0x0000000000000000        0xf common/built-in.o
 .rodata.fdt_set_node_status.str1.1
                0x0000000000000000       0x3a common/built-in.o
 .rodata.fdt_set_phandle.str1.1
                0x0000000000000000       0x16 common/built-in.o
 .rodata.fdt_setup_simplefb_node.str1.1
                0x0000000000000000       0x2c common/built-in.o
 .rodata.fdt_verify_alias_address.str1.1
                0x0000000000000000       0xcd common/built-in.o
 .rodata.mdio_register_seq.str1.1
                0x0000000000000000        0x6 common/built-in.o
 .rodata.iomux_printdevs.str1.1
                0x0000000000000000        0x6 common/built-in.o
 .rodata.confirm_yesno.str1.1
                0x0000000000000000       0x10 common/built-in.o
 .rodata.mallopt
                0x0000000000000000        0x4 common/built-in.o
 .rodata.genimg_get_short_name.str1.1
                0x0000000000000000        0x8 common/built-in.o
 .rodata.table_info
                0x0000000000000000       0x60 common/built-in.o
 .rodata.unknown_str.7844
                0x0000000000000000        0x9 common/built-in.o
 .rodata.fit_get_timestamp.str1.1
                0x0000000000000000        0xa common/built-in.o
 .rodata.fit_image_get_data_offset.str1.1
                0x0000000000000000        0xc common/built-in.o
 .rodata.fit_image_get_data_size.str1.1
                0x0000000000000000        0xa common/built-in.o
 .rodata.cli_simple_loop.str1.1
                0x0000000000000000       0x11 common/built-in.o
 .rodata.cli_simple_parse_line.str1.1
                0x0000000000000000       0x1f common/built-in.o
 .rodata.cli_simple_run_command.str1.1
                0x0000000000000000       0x16 common/built-in.o
 .data          0x0000000000000000        0x0 common/built-in.o
 .bss           0x0000000000000000        0x0 common/built-in.o
 .bss.env_ptr   0x0000000000000000        0x8 common/built-in.o
 .bss.msg.7845  0x0000000000000000       0x1e common/built-in.o
 .bss.save_addr
                0x0000000000000000        0x8 common/built-in.o
 .bss.save_size
                0x0000000000000000        0x8 common/built-in.o
 .bss.lastcommand.7157
                0x0000000000000000      0x401 common/built-in.o
 .text          0x0000000000000000        0x0 disk/built-in.o
 .text.part_get_info_by_name
                0x0000000000000000       0xc0 disk/built-in.o
 .text.is_valid_dos_buf
                0x0000000000000000       0x1c disk/built-in.o
 .text.write_mbr_partition
                0x0000000000000000       0x84 disk/built-in.o
 .text.set_protective_mbr
                0x0000000000000000      0x108 disk/built-in.o
 .text.write_gpt_table
                0x0000000000000000      0x424 disk/built-in.o
 .text.gpt_fill_pte
                0x0000000000000000      0x2f0 disk/built-in.o
 .text.gpt_fill_header
                0x0000000000000000      0x23c disk/built-in.o
 .text.gpt_restore
                0x0000000000000000      0x114 disk/built-in.o
 .text.gpt_verify_headers
                0x0000000000000000       0x98 disk/built-in.o
 .text.gpt_verify_partitions
                0x0000000000000000      0x244 disk/built-in.o
 .text.is_valid_gpt_buf
                0x0000000000000000       0x9c disk/built-in.o
 .text.write_mbr_and_gpt_partitions
                0x0000000000000000      0x484 disk/built-in.o
 .rodata        0x0000000000000000       0x10 disk/built-in.o
 .rodata.__func__.7108
                0x0000000000000000       0x14 disk/built-in.o
 .rodata.write_mbr_partition.str1.1
                0x0000000000000000       0x2d disk/built-in.o
 .rodata.__func__.7843
                0x0000000000000000       0x13 disk/built-in.o
 .rodata.__func__.7898
                0x0000000000000000        0xc disk/built-in.o
 .rodata.__func__.7916
                0x0000000000000000       0x13 disk/built-in.o
 .rodata.__func__.7929
                0x0000000000000000       0x16 disk/built-in.o
 .rodata.__func__.7949
                0x0000000000000000       0x1d disk/built-in.o
 .rodata.gpt_fill_header.str1.1
                0x0000000000000000       0x24 disk/built-in.o
 .rodata.gpt_fill_pte.str1.1
                0x0000000000000000       0x5b disk/built-in.o
 .rodata.gpt_verify_partitions.str1.1
                0x0000000000000000       0xfb disk/built-in.o
 .rodata.set_protective_mbr.str1.1
                0x0000000000000000       0x7b disk/built-in.o
 .rodata.write_mbr_and_gpt_partitions.str1.1
                0x0000000000000000       0x7c disk/built-in.o
 .data          0x0000000000000000        0x0 disk/built-in.o
 .bss           0x0000000000000000        0x0 disk/built-in.o
 .text          0x0000000000000000        0x0 drivers/built-in.o
 .text._device_find_global_by_of_offset
                0x0000000000000000       0x68 drivers/built-in.o
 .text.device_find_child_by_seq
                0x0000000000000000       0x58 drivers/built-in.o
 .text.device_get_child_by_seq
                0x0000000000000000       0x60 drivers/built-in.o
 .text.device_find_child_by_of_offset
                0x0000000000000000       0x44 drivers/built-in.o
 .text.device_get_child_by_of_offset
                0x0000000000000000       0x40 drivers/built-in.o
 .text.device_get_global_by_of_offset
                0x0000000000000000       0x48 drivers/built-in.o
 .text.dev_get_parent
                0x0000000000000000        0x8 drivers/built-in.o
 .text.dev_get_driver_ops
                0x0000000000000000       0x18 drivers/built-in.o
 .text.dev_get_uclass_name
                0x0000000000000000       0x1c drivers/built-in.o
 .text.dev_get_addr_size_index
                0x0000000000000000       0x48 drivers/built-in.o
 .text.dev_get_addr_ptr
                0x0000000000000000        0x8 drivers/built-in.o
 .text.dev_map_physmem
                0x0000000000000000       0x1c drivers/built-in.o
 .text.device_has_children
                0x0000000000000000       0x14 drivers/built-in.o
 .text.device_set_name_alloced
                0x0000000000000000       0x10 drivers/built-in.o
 .text.device_set_name
                0x0000000000000000       0x44 drivers/built-in.o
 .text.of_device_is_compatible
                0x0000000000000000       0x2c drivers/built-in.o
 .text.of_machine_is_compatible
                0x0000000000000000       0x2c drivers/built-in.o
 .text.dm_fixup_for_gd_move
                0x0000000000000000       0x20 drivers/built-in.o
 .text.dm_set_translation_offset
                0x0000000000000000       0x28 drivers/built-in.o
 .text.dm_uninit
                0x0000000000000000       0x28 drivers/built-in.o
 .text.uclass_destroy
                0x0000000000000000       0x98 drivers/built-in.o
 .text.uclass_get_name
                0x0000000000000000       0x30 drivers/built-in.o
 .text.uclass_find_device_by_name
                0x0000000000000000       0x98 drivers/built-in.o
 .text.uclass_get_device_by_driver
                0x0000000000000000       0x7c drivers/built-in.o
 .text.uclass_get_device_by_name
                0x0000000000000000       0x38 drivers/built-in.o
 .text.uclass_get_device_by_phandle
                0x0000000000000000       0xc4 drivers/built-in.o
 .text.uclass_first_device_err
                0x0000000000000000       0x34 drivers/built-in.o
 .text.dm_dbg   0x0000000000000000       0x78 drivers/built-in.o
 .text.list_count_items
                0x0000000000000000       0x28 drivers/built-in.o
 .text.simple_bus_translate
                0x0000000000000000       0x50 drivers/built-in.o
 .text.blk_list_part
                0x0000000000000000       0x9c drivers/built-in.o
 .text.blk_print_part_devnum
                0x0000000000000000       0x60 drivers/built-in.o
 .text.blk_list_devices
                0x0000000000000000       0x84 drivers/built-in.o
 .text.blk_print_device_num
                0x0000000000000000       0x6c drivers/built-in.o
 .text.blk_show_device
                0x0000000000000000       0x90 drivers/built-in.o
 .text.blk_read_devnum
                0x0000000000000000       0x94 drivers/built-in.o
 .text.blk_write_devnum
                0x0000000000000000       0x70 drivers/built-in.o
 .text._input_send_keycodes
                0x0000000000000000      0x418 drivers/built-in.o
 .text.input_send_keycodes
                0x0000000000000000        0x8 drivers/built-in.o
 .text.input_add_keycode
                0x0000000000000000       0x80 drivers/built-in.o
 .text.input_add_table
                0x0000000000000000       0x38 drivers/built-in.o
 .text.input_set_delays
                0x0000000000000000        0x8 drivers/built-in.o
 .text.input_allow_repeats
                0x0000000000000000        0x8 drivers/built-in.o
 .text.input_leds_changed
                0x0000000000000000       0x18 drivers/built-in.o
 .text.input_add_tables
                0x0000000000000000       0x70 drivers/built-in.o
 .text.input_stdio_register
                0x0000000000000000       0x58 drivers/built-in.o
 .text.create_keymap
                0x0000000000000000       0xa0 drivers/built-in.o
 .text.key_matrix_decode
                0x0000000000000000       0xe0 drivers/built-in.o
 .text.key_matrix_decode_fdt
                0x0000000000000000       0xc0 drivers/built-in.o
 .text.key_matrix_init
                0x0000000000000000       0x50 drivers/built-in.o
 .rodata.blk_list_devices.str1.1
                0x0000000000000000        0xc drivers/built-in.o
 .rodata.blk_print_device_num.str1.1
                0x0000000000000000       0x10 drivers/built-in.o
 .rodata.blk_show_device.str1.1
                0x0000000000000000       0x1d drivers/built-in.o
 .rodata.CSWTCH.23
                0x0000000000000000        0xd drivers/built-in.o
 .rodata.input_stdio_register.str1.1
                0x0000000000000000        0x6 drivers/built-in.o
 .rodata.kbd_plain_xlate
                0x0000000000000000       0x64 drivers/built-in.o
 .rodata.kbd_plain_xlate_german
                0x0000000000000000       0x84 drivers/built-in.o
 .rodata.kbd_to_ansi364
                0x0000000000000000       0x40 drivers/built-in.o
 .rodata.key_matrix_decode_fdt.str1.1
                0x0000000000000000       0x1d drivers/built-in.o
 .data          0x0000000000000000        0x0 drivers/built-in.o
 .data.kbd_ctrl_xlate
                0x0000000000000000       0x64 drivers/built-in.o
 .data.kbd_entry
                0x0000000000000000       0xe0 drivers/built-in.o
 .data.kbd_right_alt_xlate_german
                0x0000000000000000       0x58 drivers/built-in.o
 .data.kbd_shift_xlate
                0x0000000000000000       0x64 drivers/built-in.o
 .data.kbd_shift_xlate_german
                0x0000000000000000       0x84 drivers/built-in.o
 .bss           0x0000000000000000        0x0 drivers/built-in.o
 .text          0x0000000000000000        0x0 drivers/gpio/built-in.o
 .text.gpio_requestf
                0x0000000000000000       0xa0 drivers/gpio/built-in.o
 .text.dm_gpio_get_open_drain
                0x0000000000000000       0x5c drivers/gpio/built-in.o
 .text.dm_gpio_set_open_drain
                0x0000000000000000       0x68 drivers/gpio/built-in.o
 .text.dm_gpio_set_dir
                0x0000000000000000        0x8 drivers/gpio/built-in.o
 .text.gpio_claim_vector
                0x0000000000000000       0xac drivers/gpio/built-in.o
 .text.gpio_get_values_as_int
                0x0000000000000000       0x64 drivers/gpio/built-in.o
 .text.dm_gpio_get_values_as_int
                0x0000000000000000       0x70 drivers/gpio/built-in.o
 .text.gpio_get_list_count
                0x0000000000000000       0x28 drivers/gpio/built-in.o
 .text.dm_gpio_free
                0x0000000000000000       0x10 drivers/gpio/built-in.o
 .text.gpio_free_list
                0x0000000000000000       0x54 drivers/gpio/built-in.o
 .text.gpio_free_list_nodev
                0x0000000000000000       0x10 drivers/gpio/built-in.o
 .text.gpio_request_list_by_name_nodev
                0x0000000000000000       0xb4 drivers/gpio/built-in.o
 .text.gpio_request_list_by_name
                0x0000000000000000       0x20 drivers/gpio/built-in.o
 .text.gpio_get_number
                0x0000000000000000       0x24 drivers/gpio/built-in.o
 .rodata.dm_gpio_get_open_drain.str1.1
                0x0000000000000000        0xf drivers/gpio/built-in.o
 .rodata.dm_gpio_set_open_drain.str1.1
                0x0000000000000000        0xf drivers/gpio/built-in.o
 .data          0x0000000000000000        0x0 drivers/gpio/built-in.o
 .bss           0x0000000000000000        0x0 drivers/gpio/built-in.o
 .text          0x0000000000000000        0x0 drivers/mmc/built-in.o
 .text.mmc_destroy
                0x0000000000000000        0x4 drivers/mmc/built-in.o
 .text.board_mmc_init
                0x0000000000000000        0x8 drivers/mmc/built-in.o
 .text.mmc_set_preinit
                0x0000000000000000        0x8 drivers/mmc/built-in.o
 .data          0x0000000000000000        0x0 drivers/mmc/built-in.o
 .bss           0x0000000000000000        0x0 drivers/mmc/built-in.o
 .text          0x0000000000000000        0x0 drivers/net/built-in.o
 .data          0x0000000000000000        0x0 drivers/net/built-in.o
 .bss           0x0000000000000000        0x0 drivers/net/built-in.o
 .text          0x0000000000000000        0x0 drivers/net/phy/built-in.o
 .text.phy_register
                0x0000000000000000       0x24 drivers/net/phy/built-in.o
 .text.phy_set_supported
                0x0000000000000000       0x5c drivers/net/phy/built-in.o
 .text.miiphy_reset
                0x0000000000000000       0x30 drivers/net/phy/built-in.o
 .text.phy_startup
                0x0000000000000000       0x18 drivers/net/phy/built-in.o
 .data          0x0000000000000000        0x0 drivers/net/phy/built-in.o
 .bss           0x0000000000000000        0x0 drivers/net/phy/built-in.o
 .text          0x0000000000000000        0x0 drivers/serial/built-in.o
 .text.ns16550_calc_divisor
                0x0000000000000000       0x10 drivers/serial/built-in.o
 .text.NS16550_reinit
                0x0000000000000000       0x5c drivers/serial/built-in.o
 .text.NS16550_putc
                0x0000000000000000       0x34 drivers/serial/built-in.o
 .text.NS16550_getc
                0x0000000000000000       0x30 drivers/serial/built-in.o
 .text.NS16550_tstc
                0x0000000000000000       0x20 drivers/serial/built-in.o
 .data          0x0000000000000000        0x0 drivers/serial/built-in.o
 .bss           0x0000000000000000        0x0 drivers/serial/built-in.o
 .text          0x0000000000000000        0x0 drivers/spi/built-in.o
 .text.spi_set_wordlen
                0x0000000000000000       0x38 drivers/spi/built-in.o
 .text.spi_do_alloc_slave
                0x0000000000000000       0x70 drivers/spi/built-in.o
 .rodata.spi_set_wordlen.str1.1
                0x0000000000000000       0x19 drivers/spi/built-in.o
 .data          0x0000000000000000        0x0 drivers/spi/built-in.o
 .bss           0x0000000000000000        0x0 drivers/spi/built-in.o
 .comment       0x0000000000000000       0x2e drivers/spi/built-in.o
 .note.GNU-stack
                0x0000000000000000        0x0 drivers/spi/built-in.o
 .debug_aranges
                0x0000000000000000       0x40 drivers/spi/built-in.o
 .debug_info    0x0000000000000000      0xcca drivers/spi/built-in.o
 .debug_abbrev  0x0000000000000000      0x249 drivers/spi/built-in.o
 .debug_line    0x0000000000000000      0x180 drivers/spi/built-in.o
 .debug_frame   0x0000000000000000       0x78 drivers/spi/built-in.o
 .debug_str     0x0000000000000000      0xa6d drivers/spi/built-in.o
 .debug_loc     0x0000000000000000      0x24a drivers/spi/built-in.o
 .debug_ranges  0x0000000000000000       0x30 drivers/spi/built-in.o
 .text          0x0000000000000000        0x0 drivers/usb/common/built-in.o
 .text.usb_get_dr_mode
                0x0000000000000000       0x9c drivers/usb/common/built-in.o
 .rodata.__func__.6963
                0x0000000000000000       0x10 drivers/usb/common/built-in.o
 .rodata.str1.1
                0x0000000000000000       0x15 drivers/usb/common/built-in.o
 .rodata.usb_dr_modes
                0x0000000000000000       0x20 drivers/usb/common/built-in.o
 .rodata.usb_get_dr_mode.str1.1
                0x0000000000000000       0x51 drivers/usb/common/built-in.o
 .data          0x0000000000000000        0x0 drivers/usb/common/built-in.o
 .bss           0x0000000000000000        0x0 drivers/usb/common/built-in.o
 .comment       0x0000000000000000       0x2e drivers/usb/common/built-in.o
 .note.GNU-stack
                0x0000000000000000        0x0 drivers/usb/common/built-in.o
 .debug_aranges
                0x0000000000000000       0x30 drivers/usb/common/built-in.o
 .debug_info    0x0000000000000000      0xf0a drivers/usb/common/built-in.o
 .debug_abbrev  0x0000000000000000      0x2ab drivers/usb/common/built-in.o
 .debug_line    0x0000000000000000      0x1b6 drivers/usb/common/built-in.o
 .debug_frame   0x0000000000000000       0x48 drivers/usb/common/built-in.o
 .debug_str     0x0000000000000000      0xc27 drivers/usb/common/built-in.o
 .debug_loc     0x0000000000000000       0xee drivers/usb/common/built-in.o
 .debug_ranges  0x0000000000000000       0x20 drivers/usb/common/built-in.o
 .text          0x0000000000000000        0x0 drivers/usb/host/built-in.o
 .text.usb_setup_ehci_gadget
                0x0000000000000000       0x7c drivers/usb/host/built-in.o
 .text.usb_detect_change
                0x0000000000000000       0xa8 drivers/usb/host/built-in.o
 .text.rh_check_port_status
                0x0000000000000000       0x5c drivers/usb/host/built-in.o
 .rodata.default_ehci_ops
                0x0000000000000000       0x28 drivers/usb/host/built-in.o
 .data          0x0000000000000000        0x0 drivers/usb/host/built-in.o
 .bss           0x0000000000000000        0x0 drivers/usb/host/built-in.o
 .text          0x0000000000000000        0x0 fs/built-in.o
 .text.fs_uuid  0x0000000000000000       0x28 fs/built-in.o
 .text.do_fs_uuid
                0x0000000000000000       0xa0 fs/built-in.o
 .text.fat_register_device
                0x0000000000000000       0x80 fs/built-in.o
 .text.file_fat_read
                0x0000000000000000       0x34 fs/built-in.o
 .text.file_getfsname
                0x0000000000000000       0x1c fs/built-in.o
 .text.file_cd  0x0000000000000000      0x1f0 fs/built-in.o
 .text.file_detectfs
                0x0000000000000000       0x48 fs/built-in.o
 .text.file_ls  0x0000000000000000       0x9c fs/built-in.o
 .text.file_read
                0x0000000000000000       0xb4 fs/built-in.o
 .rodata.fat_register_device.str1.1
                0x0000000000000000       0x2b fs/built-in.o
 .rodata.file_detectfs.str1.1
                0x0000000000000000        0x2 fs/built-in.o
 .rodata.file_ls.str1.1
                0x0000000000000000       0x2e fs/built-in.o
 .rodata.file_read.str1.1
                0x0000000000000000       0x27 fs/built-in.o
 .rodata.filesystems
                0x0000000000000000       0x28 fs/built-in.o
 .data          0x0000000000000000        0x0 fs/built-in.o
 .data.current_filesystem
                0x0000000000000000        0x4 fs/built-in.o
 .data.file_cwd
                0x0000000000000000      0x200 fs/built-in.o
 .bss           0x0000000000000000        0x0 fs/built-in.o
 .bss.ext4fs_symlinknest
                0x0000000000000000        0x4 fs/built-in.o
 .bss.g_parent_inode
                0x0000000000000000        0x8 fs/built-in.o
 .text          0x0000000000000000        0x0 lib/built-in.o
 .text.invalidate_icache_all
                0x0000000000000000        0x4 lib/built-in.o
 .text.efi_add_runtime_mmio
                0x0000000000000000       0x68 lib/built-in.o
 .text.inflateInit_
                0x0000000000000000       0x10 lib/built-in.o
 .text.fdt_get_max_phandle
                0x0000000000000000       0x80 lib/built-in.o
 .text.fdt_get_path
                0x0000000000000000      0x170 lib/built-in.o
 .text.fdt_node_offset_by_prop_value
                0x0000000000000000       0xb4 lib/built-in.o
 .text.fdt_stringlist_contains
                0x0000000000000000       0x98 lib/built-in.o
 .text.fdt_stringlist_count
                0x0000000000000000       0x7c lib/built-in.o
 .text.fdt_node_check_compatible
                0x0000000000000000       0x4c lib/built-in.o
 .text.fdt_node_offset_by_compatible
                0x0000000000000000       0x84 lib/built-in.o
 .text.fdt_set_name
                0x0000000000000000       0xac lib/built-in.o
 .text.fdt_appendprop
                0x0000000000000000       0xec lib/built-in.o
 .text.fdt_pack
                0x0000000000000000       0x6c lib/built-in.o
 .text.fdt_remove_unused_strings
                0x0000000000000000       0xcc lib/built-in.o
 .text._fdt_sw_check_header
                0x0000000000000000       0x1c lib/built-in.o
 .text._fdt_grab_space
                0x0000000000000000       0x58 lib/built-in.o
 .text.fdt_create
                0x0000000000000000       0x70 lib/built-in.o
 .text.fdt_resize
                0x0000000000000000       0xe0 lib/built-in.o
 .text.fdt_add_reservemap_entry
                0x0000000000000000       0x74 lib/built-in.o
 .text.fdt_finish_reservemap
                0x0000000000000000        0xc lib/built-in.o
 .text.fdt_begin_node
                0x0000000000000000       0x84 lib/built-in.o
 .text.fdt_end_node
                0x0000000000000000       0x44 lib/built-in.o
 .text.fdt_property_placeholder
                0x0000000000000000      0x124 lib/built-in.o
 .text.fdt_property
                0x0000000000000000       0x50 lib/built-in.o
 .text.fdt_finish
                0x0000000000000000      0x10c lib/built-in.o
 .text.fdt_setprop_inplace_namelen_partial
                0x0000000000000000       0x6c lib/built-in.o
 .text.fdt_setprop_inplace
                0x0000000000000000       0x8c lib/built-in.o
 .text.fdt_nop_property
                0x0000000000000000       0x48 lib/built-in.o
 .text.fdt_nop_node
                0x0000000000000000       0x68 lib/built-in.o
 .text.fdt_find_regions
                0x0000000000000000      0x34c lib/built-in.o
 .text.fdt_create_empty_tree
                0x0000000000000000       0x78 lib/built-in.o
 .text.fdt_add_region
                0x0000000000000000       0x78 lib/built-in.o
 .text.fdt_add_alias_regions
                0x0000000000000000      0x1b0 lib/built-in.o
 .text.fdt_next_region
                0x0000000000000000      0x4e0 lib/built-in.o
 .text.fdt_first_region
                0x0000000000000000       0x38 lib/built-in.o
 .text.crc7     0x0000000000000000       0x30 lib/built-in.o
 .text.crc8     0x0000000000000000       0x48 lib/built-in.o
 .text.fdtdec_get_uint
                0x0000000000000000       0x40 lib/built-in.o
 .text.lmb_dump_all
                0x0000000000000000        0x4 lib/built-in.o
 .text.lmb_is_reserved
                0x0000000000000000       0x4c lib/built-in.o
 .text.arch_lmb_reserve
                0x0000000000000000        0x4 lib/built-in.o
 .text.ldiv     0x0000000000000000       0x2c lib/built-in.o
 .text.byteReverse
                0x0000000000000000        0x4 lib/built-in.o
 .text.md5      0x0000000000000000       0x6c lib/built-in.o
 .text.rc4_encode
                0x0000000000000000       0xdc lib/built-in.o
 .text.sha1_csum
                0x0000000000000000       0x48 lib/built-in.o
 .text.sha1_hmac
                0x0000000000000000      0x14c lib/built-in.o
 .text.sha1_self_test
                0x0000000000000000        0x8 lib/built-in.o
 .text.fdtdec_get_compatible
                0x0000000000000000       0x10 lib/built-in.o
 .text.fdtdec_get_uint64
                0x0000000000000000       0x40 lib/built-in.o
 .text.fdtdec_lookup
                0x0000000000000000       0x68 lib/built-in.o
 .text.fdtdec_next_compatible
                0x0000000000000000       0x10 lib/built-in.o
 .text.fdtdec_next_compatible_subnode
                0x0000000000000000       0x78 lib/built-in.o
 .text.fdtdec_next_alias
                0x0000000000000000       0xac lib/built-in.o
 .text.fdtdec_add_aliases_for_id
                0x0000000000000000      0x23c lib/built-in.o
 .text.fdtdec_find_aliases_for_id
                0x0000000000000000       0x60 lib/built-in.o
 .text.fdtdec_check_fdt
                0x0000000000000000       0x18 lib/built-in.o
 .text.decode_timing_property
                0x0000000000000000       0x8c lib/built-in.o
 .text.fdtdec_get_int_array_count
                0x0000000000000000       0x68 lib/built-in.o
 .text.fdtdec_locate_array
                0x0000000000000000       0x28 lib/built-in.o
 .text.fdtdec_get_child_count
                0x0000000000000000       0x40 lib/built-in.o
 .text.fdtdec_get_byte_array
                0x0000000000000000       0x48 lib/built-in.o
 .text.fdtdec_locate_byte_array
                0x0000000000000000       0x24 lib/built-in.o
 .text.fdtdec_get_config_bool
                0x0000000000000000       0x54 lib/built-in.o
 .text.fdtdec_decode_region
                0x0000000000000000       0x5c lib/built-in.o
 .text.fdtdec_read_fmap_entry
                0x0000000000000000       0xdc lib/built-in.o
 .text.fdtdec_get_number
                0x0000000000000000       0x30 lib/built-in.o
 .text.fdtdec_get_addr_size_fixed
                0x0000000000000000       0xe0 lib/built-in.o
 .text.fdtdec_get_addr_size_auto_parent
                0x0000000000000000       0xa8 lib/built-in.o
 .text.fdtdec_get_addr_size_auto_noparent
                0x0000000000000000       0x7c lib/built-in.o
 .text.fdtdec_get_addr_size
                0x0000000000000000       0x20 lib/built-in.o
 .text.fdtdec_get_addr
                0x0000000000000000        0x8 lib/built-in.o
 .text.fdt_get_resource
                0x0000000000000000      0x114 lib/built-in.o
 .text.fdt_get_named_resource
                0x0000000000000000       0x64 lib/built-in.o
 .text.fdtdec_decode_memory_region
                0x0000000000000000      0x130 lib/built-in.o
 .text.fdtdec_decode_display_timing
                0x0000000000000000      0x304 lib/built-in.o
 .text.fdtdec_setup_memory_size
                0x0000000000000000       0x5c lib/built-in.o
 .text.fdtdec_setup_memory_banksize
                0x0000000000000000       0x7c lib/built-in.o
 .text.print_freq
                0x0000000000000000      0x134 lib/built-in.o
 .text.iter_div_u64_rem
                0x0000000000000000       0x28 lib/built-in.o
 .text.copy_from_user
                0x0000000000000000       0x18 lib/built-in.o
 .text.kmalloc  0x0000000000000000       0x4c lib/built-in.o
 .text.get_mem  0x0000000000000000       0x2c lib/built-in.o
 .text.kmem_cache_alloc
                0x0000000000000000        0xc lib/built-in.o
 .text.membuff_purge
                0x0000000000000000        0xc lib/built-in.o
 .text.membuff_putraw
                0x0000000000000000       0xa0 lib/built-in.o
 .text.membuff_putbyte
                0x0000000000000000       0x3c lib/built-in.o
 .text.membuff_getraw
                0x0000000000000000       0x84 lib/built-in.o
 .text.membuff_getbyte
                0x0000000000000000       0x3c lib/built-in.o
 .text.membuff_peekbyte
                0x0000000000000000       0x3c lib/built-in.o
 .text.membuff_get
                0x0000000000000000       0x9c lib/built-in.o
 .text.membuff_put
                0x0000000000000000       0x84 lib/built-in.o
 .text.membuff_isempty
                0x0000000000000000       0x10 lib/built-in.o
 .text.membuff_avail
                0x0000000000000000       0x54 lib/built-in.o
 .text.membuff_size
                0x0000000000000000       0x10 lib/built-in.o
 .text.membuff_makecontig
                0x0000000000000000       0xa4 lib/built-in.o
 .text.membuff_free
                0x0000000000000000       0x3c lib/built-in.o
 .text.membuff_readline
                0x0000000000000000       0xa8 lib/built-in.o
 .text.membuff_extend_by
                0x0000000000000000       0xe0 lib/built-in.o
 .text.membuff_init
                0x0000000000000000       0x10 lib/built-in.o
 .text.membuff_new
                0x0000000000000000       0x48 lib/built-in.o
 .text.membuff_uninit
                0x0000000000000000        0xc lib/built-in.o
 .text.membuff_dispose
                0x0000000000000000       0x28 lib/built-in.o
 .text.strspn   0x0000000000000000       0x3c lib/built-in.o
 .text.strpbrk  0x0000000000000000       0x34 lib/built-in.o
 .text.strtok   0x0000000000000000       0x80 lib/built-in.o
 .text.strsep   0x0000000000000000       0x40 lib/built-in.o
 .text.strswab  0x0000000000000000       0x3c lib/built-in.o
 .text.memchr_inv
                0x0000000000000000      0x108 lib/built-in.o
 .text.table_compute_checksum
                0x0000000000000000       0x2c lib/built-in.o
 .text.get_ticks
                0x0000000000000000       0x40 lib/built-in.o
 .text.vsnprintf
                0x0000000000000000       0x50 lib/built-in.o
 .text.scnprintf
                0x0000000000000000       0x74 lib/built-in.o
 .text.__assert_fail
                0x0000000000000000       0x18 lib/built-in.o
 .text.print_grouped_ull
                0x0000000000000000       0x9c lib/built-in.o
 .text.str2off  0x0000000000000000       0x50 lib/built-in.o
 .text.str2long
                0x0000000000000000       0x50 lib/built-in.o
 .text.strmhz   0x0000000000000000       0x68 lib/built-in.o
 .rodata.z_errmsg
                0x0000000000000000       0x50 lib/built-in.o
 .rodata.fdt_node_check_compatible.str1.1
                0x0000000000000000        0xb lib/built-in.o
 .rodata.fdt_find_regions
                0x0000000000000000       0x12 lib/built-in.o
 .rodata.fdt_create_empty_tree.str1.1
                0x0000000000000000        0x1 lib/built-in.o
 .rodata.fdt_next_region
                0x0000000000000000       0x12 lib/built-in.o
 .rodata.fdt_add_alias_regions.str1.1
                0x0000000000000000        0x8 lib/built-in.o
 .rodata.crc7_syndrome_table
                0x0000000000000000      0x100 lib/built-in.o
 .rodata.sha1_der_prefix
                0x0000000000000000        0xf lib/built-in.o
 .rodata.sha256_der_prefix
                0x0000000000000000       0x13 lib/built-in.o
 .rodata.compat_names
                0x0000000000000000      0x170 lib/built-in.o
 .rodata.fdtdec_decode_display_timing.str1.1
                0x0000000000000000       0xca lib/built-in.o
 .rodata.fdtdec_decode_memory_region.str1.1
                0x0000000000000000       0x21 lib/built-in.o
 .rodata.fdtdec_next_alias.str1.1
                0x0000000000000000        0x7 lib/built-in.o
 .rodata.fdtdec_read_fmap_entry.str1.1
                0x0000000000000000       0x1b lib/built-in.o
 .rodata.names.7199
                0x0000000000000000        0x3 lib/built-in.o
 .rodata.__assert_fail.str1.1
                0x0000000000000000       0x22 lib/built-in.o
 .rodata.print_grouped_ull.str1.1
                0x0000000000000000        0xb lib/built-in.o
 .rodata.strmhz.str1.1
                0x0000000000000000        0xb lib/built-in.o
 .data          0x0000000000000000        0x0 lib/built-in.o
 .data.cur      0x0000000000000000        0x4 lib/built-in.o
 .data.current  0x0000000000000000        0x8 lib/built-in.o
 .bss           0x0000000000000000        0x0 lib/built-in.o
 .bss.___strtok
                0x0000000000000000        0x8 lib/built-in.o
 .text          0x0000000000000000        0x0 net/built-in.o
 .text.add_ip_checksums
                0x0000000000000000       0x40 net/built-in.o
 .text.eth_init_state_only
                0x0000000000000000       0x38 net/built-in.o
 .text.eth_is_active
                0x0000000000000000       0x34 net/built-in.o
 .text.net_get_udp_handler
                0x0000000000000000        0xc net/built-in.o
 .text.net_set_arp_handler
                0x0000000000000000       0x18 net/built-in.o
 .text.random_port
                0x0000000000000000       0x20 net/built-in.o
 .text.vlan_to_string
                0x0000000000000000       0x44 net/built-in.o
 .text.getenv_vlan
                0x0000000000000000       0x14 net/built-in.o
 .rodata.vlan_to_string.str1.1
                0x0000000000000000        0x8 net/built-in.o
 .data          0x0000000000000000        0x0 net/built-in.o
 .data.tftp_timeout_ms
                0x0000000000000000        0x8 net/built-in.o
 .bss           0x0000000000000000        0x0 net/built-in.o
 .text          0x0000000000000000        0x0 test/dm/built-in.o
 .data          0x0000000000000000        0x0 test/dm/built-in.o
 .bss           0x0000000000000000        0x0 test/dm/built-in.o

Memory Configuration

Name             Origin             Length             Attributes
*default*        0x0000000000000000 0xffffffffffffffff

Linker script and memory map

Address of section .text set to 0x4a000000
                0x0000000000000000                . = 0x0
                0x0000000000000000                . = ALIGN (0x8)

.text           0x000000004a000000    0x46e14
 *(.__image_copy_start)
 .__image_copy_start
                0x000000004a000000        0x0 arch/arm/lib/built-in.o
                0x000000004a000000                __image_copy_start
 arch/arm/cpu/armv8/start.o(.text*)
 .text          0x000000004a000000      0x1c0 arch/arm/cpu/armv8/start.o
                0x000000004a000000                _start
                0x000000004a0000b8                _TEXT_BASE
                0x000000004a0000c0                _end_ofs
                0x000000004a0000c8                _bss_start_ofs
                0x000000004a0000d0                _bss_end_ofs
                0x000000004a0000dc                save_boot_params_ret
                0x000000004a000144                apply_core_errata
                0x000000004a000174                smp_kick_all_cpus
                0x000000004a000178                c_runtime_cpu_setup
                0x000000004a0001b0                save_boot_params
 *(.text*)
 *fill*         0x000000004a0001c0      0x640 
 .text          0x000000004a000800      0xc34 arch/arm/cpu/armv8/built-in.o
                0x000000004a000800                vectors
                0x000000004a001038                __asm_dcache_level
                0x000000004a00109c                __asm_dcache_all
                0x000000004a0010fc                __asm_flush_dcache_all
                0x000000004a001104                __asm_invalidate_dcache_all
                0x000000004a00110c                __asm_flush_dcache_range
                0x000000004a001140                __asm_invalidate_icache_all
                0x000000004a00114c                __asm_invalidate_l3_dcache
                0x000000004a001154                __asm_flush_l3_dcache
                0x000000004a00115c                __asm_invalidate_l3_icache
                0x000000004a001164                __asm_switch_ttbr
                0x000000004a001244                __asm_invalidate_tlb_all
                0x000000004a001290                armv8_switch_to_el2
                0x000000004a00131c                armv8_switch_to_el1
                0x000000004a0013c0                armv8_el2_to_aarch32
                0x000000004a001418                lowlevel_init
 .text.cleanup_before_linux
                0x000000004a001434       0x28 arch/arm/cpu/armv8/built-in.o
                0x000000004a001434                cleanup_before_linux
 .text.get_tbclk
                0x000000004a00145c        0x8 arch/arm/cpu/armv8/built-in.o
                0x000000004a00145c                get_tbclk
 .text.get_ticks
                0x000000004a001464       0x10 arch/arm/cpu/armv8/built-in.o
                0x000000004a001464                get_ticks
 .text.count_required_pts
                0x000000004a001474       0xf8 arch/arm/cpu/armv8/built-in.o
 .text.create_table
                0x000000004a00156c       0x70 arch/arm/cpu/armv8/built-in.o
 .text.split_block
                0x000000004a0015dc       0xa0 arch/arm/cpu/armv8/built-in.o
 .text.get_tcr  0x000000004a00167c       0xe8 arch/arm/cpu/armv8/built-in.o
                0x000000004a00167c                get_tcr
 .text.find_pte
                0x000000004a001764       0x94 arch/arm/cpu/armv8/built-in.o
 .text.get_page_table_size
                0x000000004a0017f8       0x4c arch/arm/cpu/armv8/built-in.o
                0x000000004a0017f8                get_page_table_size
 .text.setup_pgtables
                0x000000004a001844      0x15c arch/arm/cpu/armv8/built-in.o
                0x000000004a001844                setup_pgtables
 .text.mmu_setup
                0x000000004a0019a0      0x13c arch/arm/cpu/armv8/built-in.o
                0x000000004a0019a0                mmu_setup
 .text.invalidate_dcache_all
                0x000000004a001adc       0x14 arch/arm/cpu/armv8/built-in.o
                0x000000004a001adc                invalidate_dcache_all
 .text.invalidate_dcache_range
                0x000000004a001af0        0x4 arch/arm/cpu/armv8/built-in.o
                0x000000004a001af0                invalidate_dcache_range
 .text.flush_dcache_range
                0x000000004a001af4        0x4 arch/arm/cpu/armv8/built-in.o
                0x000000004a001af4                flush_dcache_range
 .text.dcache_enable
                0x000000004a001af8      0x110 arch/arm/cpu/armv8/built-in.o
                0x000000004a001af8                dcache_enable
 .text.dcache_disable
                0x000000004a001c08       0x84 arch/arm/cpu/armv8/built-in.o
                0x000000004a001c08                dcache_disable
 .text.dcache_status
                0x000000004a001c8c       0x34 arch/arm/cpu/armv8/built-in.o
                0x000000004a001c8c                dcache_status
 .text.icache_disable
                0x000000004a001cc0       0x64 arch/arm/cpu/armv8/built-in.o
                0x000000004a001cc0                icache_disable
 .text.invalidate_icache_all
                0x000000004a001d24       0x14 arch/arm/cpu/armv8/built-in.o
                0x000000004a001d24                invalidate_icache_all
 .text.icache_enable
                0x000000004a001d38       0x74 arch/arm/cpu/armv8/built-in.o
                0x000000004a001d38                icache_enable
 .text.enable_caches
                0x000000004a001dac       0x14 arch/arm/cpu/armv8/built-in.o
                0x000000004a001dac                enable_caches
 .text.reset_misc
                0x000000004a001dc0        0xc arch/arm/cpu/armv8/built-in.o
                0x000000004a001dc0                reset_misc
 *fill*         0x000000004a001dcc        0x4 
 .text          0x000000004a001dd0      0x160 arch/arm/lib/built-in.o
                0x000000004a001dd0                _main
                0x000000004a001e58                relocate_code
 .text.arch_fixup_fdt
                0x000000004a001f30       0x30 arch/arm/lib/built-in.o
                0x000000004a001f30                arch_fixup_fdt
 .text.arch_lmb_reserve
                0x000000004a001f60       0x24 arch/arm/lib/built-in.o
                0x000000004a001f60                arch_lmb_reserve
 .text.board_quiesce_devices
                0x000000004a001f84        0x4 arch/arm/lib/built-in.o
                0x000000004a001f84                board_quiesce_devices
 .text.setup_board_tags
                0x000000004a001f88        0x4 arch/arm/lib/built-in.o
                0x000000004a001f88                setup_board_tags
 .text.boot_prep_linux
                0x000000004a001f8c      0x1d0 arch/arm/lib/built-in.o
 .text.update_os_arch_secondary_cores
                0x000000004a00215c        0x4 arch/arm/lib/built-in.o
                0x000000004a00215c                update_os_arch_secondary_cores
 .text.boot_jump_linux
                0x000000004a002160       0xc8 arch/arm/lib/built-in.o
 .text.do_bootm_linux
                0x000000004a002228       0x74 arch/arm/lib/built-in.o
                0x000000004a002228                do_bootm_linux
 .text.boot_prep_vxworks
                0x000000004a00229c       0x50 arch/arm/lib/built-in.o
                0x000000004a00229c                boot_prep_vxworks
 .text.boot_jump_vxworks
                0x000000004a0022ec        0xc arch/arm/lib/built-in.o
                0x000000004a0022ec                boot_jump_vxworks
 .text.arch_reserve_stacks
                0x000000004a0022f8       0x10 arch/arm/lib/built-in.o
                0x000000004a0022f8                arch_reserve_stacks
 .text.interrupt_init
                0x000000004a002308        0x8 arch/arm/lib/built-in.o
                0x000000004a002308                interrupt_init
 .text.enable_interrupts
                0x000000004a002310        0x4 arch/arm/lib/built-in.o
                0x000000004a002310                enable_interrupts
 .text.disable_interrupts
                0x000000004a002314        0x8 arch/arm/lib/built-in.o
                0x000000004a002314                disable_interrupts
 .text.show_regs
                0x000000004a00231c       0x80 arch/arm/lib/built-in.o
                0x000000004a00231c                show_regs
 .text.do_bad_sync
                0x000000004a00239c       0x3c arch/arm/lib/built-in.o
                0x000000004a00239c                do_bad_sync
 .text.do_bad_irq
                0x000000004a0023d8       0x3c arch/arm/lib/built-in.o
                0x000000004a0023d8                do_bad_irq
 .text.do_bad_fiq
                0x000000004a002414       0x3c arch/arm/lib/built-in.o
                0x000000004a002414                do_bad_fiq
 .text.do_bad_error
                0x000000004a002450       0x3c arch/arm/lib/built-in.o
                0x000000004a002450                do_bad_error
 .text.do_sync  0x000000004a00248c       0x3c arch/arm/lib/built-in.o
                0x000000004a00248c                do_sync
 .text.do_irq   0x000000004a0024c8       0x3c arch/arm/lib/built-in.o
                0x000000004a0024c8                do_irq
 .text.do_fiq   0x000000004a002504       0x3c arch/arm/lib/built-in.o
                0x000000004a002504                do_fiq
 .text.do_error
                0x000000004a002540       0x3c arch/arm/lib/built-in.o
                0x000000004a002540                do_error
 .text.do_reset
                0x000000004a00257c       0x38 arch/arm/lib/built-in.o
                0x000000004a00257c                do_reset
 .text.flush_cache
                0x000000004a0025b4        0x8 arch/arm/lib/built-in.o
                0x000000004a0025b4                flush_cache
 .text.s_init   0x000000004a0025bc       0x98 arch/arm/mach-sunxi/built-in.o
                0x000000004a0025bc                s_init
 .text.reset_cpu
                0x000000004a002654       0x2c arch/arm/mach-sunxi/built-in.o
                0x000000004a002654                reset_cpu
 .text.clock_init_sec
                0x000000004a002680       0x1c arch/arm/mach-sunxi/built-in.o
                0x000000004a002684                clock_init_sec
 .text.clock_init
                0x000000004a00269c       0x1c arch/arm/mach-sunxi/built-in.o
                0x000000004a00269c                clock_init
 .text.print_cpuinfo
                0x000000004a0026b8       0x20 arch/arm/mach-sunxi/built-in.o
                0x000000004a0026b8                print_cpuinfo
 .text.sunxi_get_sid
                0x000000004a0026d8       0x3c arch/arm/mach-sunxi/built-in.o
                0x000000004a0026d8                sunxi_get_sid
 .text.sunxi_gpio_set_cfgbank
                0x000000004a002714       0x2c arch/arm/mach-sunxi/built-in.o
                0x000000004a002714                sunxi_gpio_set_cfgbank
 .text.sunxi_gpio_set_cfgpin
                0x000000004a002740       0x3c arch/arm/mach-sunxi/built-in.o
                0x000000004a002740                sunxi_gpio_set_cfgpin
 .text.sunxi_gpio_get_cfgbank
                0x000000004a00277c       0x20 arch/arm/mach-sunxi/built-in.o
                0x000000004a00277c                sunxi_gpio_get_cfgbank
 .text.sunxi_gpio_set_drv
                0x000000004a00279c       0x64 arch/arm/mach-sunxi/built-in.o
                0x000000004a00279c                sunxi_gpio_set_drv
 .text.sunxi_gpio_set_pull
                0x000000004a002800       0x64 arch/arm/mach-sunxi/built-in.o
                0x000000004a002800                sunxi_gpio_set_pull
 .text.sunxi_usb_phy_init
                0x000000004a002864       0xa0 arch/arm/mach-sunxi/built-in.o
                0x000000004a002864                sunxi_usb_phy_init
 .text.sunxi_usb_phy_exit
                0x000000004a002904       0x6c arch/arm/mach-sunxi/built-in.o
                0x000000004a002904                sunxi_usb_phy_exit
 .text.sunxi_usb_phy_power_on
                0x000000004a002970       0x88 arch/arm/mach-sunxi/built-in.o
                0x000000004a002970                sunxi_usb_phy_power_on
 .text.sunxi_usb_phy_probe
                0x000000004a0029f8      0x10c arch/arm/mach-sunxi/built-in.o
                0x000000004a0029f8                sunxi_usb_phy_probe
 .text.clock_init_uart
                0x000000004a002b04       0x38 arch/arm/mach-sunxi/built-in.o
                0x000000004a002b04                clock_init_uart
 .text.clock_get_pll6
                0x000000004a002b3c       0x30 arch/arm/mach-sunxi/built-in.o
                0x000000004a002b3c                clock_get_pll6
 .text.setup_environment
                0x000000004a002b6c      0x188 board/sunxi/built-in.o
 .text.board_init
                0x000000004a002cf4       0x7c board/sunxi/built-in.o
                0x000000004a002cf4                board_init
 .text.dram_init
                0x000000004a002d70       0x30 board/sunxi/built-in.o
                0x000000004a002d70                dram_init
 .text.board_mmc_init
                0x000000004a002da0      0x124 board/sunxi/built-in.o
                0x000000004a002da0                board_mmc_init
 .text.i2c_init_board
                0x000000004a002ec4        0x4 board/sunxi/built-in.o
                0x000000004a002ec4                i2c_init_board
 .text.get_board_serial
                0x000000004a002ec8       0x48 board/sunxi/built-in.o
                0x000000004a002ec8                get_board_serial
 .text.misc_init_r
                0x000000004a002f10       0xf8 board/sunxi/built-in.o
                0x000000004a002f10                misc_init_r
 .text.ft_board_setup
                0x000000004a003008       0x18 board/sunxi/built-in.o
                0x000000004a003008                ft_board_setup
 .text.do_go_exec
                0x000000004a003020       0x10 cmd/built-in.o
                0x000000004a003020                do_go_exec
 .text.do_go    0x000000004a003030       0x88 cmd/built-in.o
 .text.do_bootm
                0x000000004a0030b8      0x108 cmd/built-in.o
                0x000000004a0030b8                do_bootm
 .text.do_bootd
                0x000000004a0031c0       0x2c cmd/built-in.o
                0x000000004a0031c0                do_bootd
 .text.image_info
                0x000000004a0031ec      0x128 cmd/built-in.o
 .text.do_iminfo
                0x000000004a003314       0x80 cmd/built-in.o
 .text.bootm_maybe_autostart
                0x000000004a003394       0x74 cmd/built-in.o
                0x000000004a003394                bootm_maybe_autostart
 .text.do_help  0x000000004a003408       0x3c cmd/built-in.o
 .text.do_version
                0x000000004a003444       0x40 cmd/built-in.o
 .text.source   0x000000004a003484      0x1c8 cmd/built-in.o
                0x000000004a003484                source
 .text.do_source
                0x000000004a00364c       0x78 cmd/built-in.o
 .text.print_num
                0x000000004a0036c4       0x14 cmd/built-in.o
 .text.do_bdinfo
                0x000000004a0036d8       0xec cmd/built-in.o
 .text.bootefi_open_dp
                0x000000004a0037c4       0x14 cmd/built-in.o
 .text.efi_run_in_el2
                0x000000004a0037d8       0x3c cmd/built-in.o
 .text.do_bootefi_exec
                0x000000004a003814      0x2d0 cmd/built-in.o
 .text.do_bootefi
                0x000000004a003ae4       0xa8 cmd/built-in.o
 .text.efi_set_bootdev
                0x000000004a003b8c      0x170 cmd/built-in.o
                0x000000004a003b8c                efi_set_bootdev
 .text.do_booti
                0x000000004a003cfc      0x194 cmd/built-in.o
                0x000000004a003cfc                do_booti
 .text.do_coninfo
                0x000000004a003e90       0xdc cmd/built-in.o
 .text.do_echo  0x000000004a003f6c       0xd8 cmd/built-in.o
 .text.load_elf_image_shdr
                0x000000004a004044       0xa0 cmd/built-in.o
 .text.valid_elf_image
                0x000000004a0040e4       0x58 cmd/built-in.o
                0x000000004a0040e4                valid_elf_image
 .text.do_bootelf
                0x000000004a00413c      0x19c cmd/built-in.o
                0x000000004a00413c                do_bootelf
 .text.do_bootvx
                0x000000004a0042d8      0x370 cmd/built-in.o
                0x000000004a0042d8                do_bootvx
 .text.do_exit  0x000000004a004648       0x40 cmd/built-in.o
 .text.do_ext4_size
                0x000000004a004688        0x8 cmd/built-in.o
                0x000000004a004688                do_ext4_size
 .text.do_ext4_load
                0x000000004a004690        0x8 cmd/built-in.o
                0x000000004a004690                do_ext4_load
 .text.do_ext4_ls
                0x000000004a004698        0x8 cmd/built-in.o
                0x000000004a004698                do_ext4_ls
 .text.do_ext2load
                0x000000004a0046a0        0x8 cmd/built-in.o
                0x000000004a0046a0                do_ext2load
 .text.do_ext2ls
                0x000000004a0046a8        0x8 cmd/built-in.o
 .text.do_fat_size
                0x000000004a0046b0        0x8 cmd/built-in.o
                0x000000004a0046b0                do_fat_size
 .text.do_fat_fsload
                0x000000004a0046b8        0x8 cmd/built-in.o
                0x000000004a0046b8                do_fat_fsload
 .text.do_fat_ls
                0x000000004a0046c0        0x8 cmd/built-in.o
 .text.do_fat_fsinfo
                0x000000004a0046c8       0x94 cmd/built-in.o
 .text.do_fat_fswrite
                0x000000004a00475c      0x120 cmd/built-in.o
 .text.fdt_valid
                0x000000004a00487c       0xcc cmd/built-in.o
 .text.is_printable_string
                0x000000004a004948       0x80 cmd/built-in.o
 .text.print_data
                0x000000004a0049c8      0x1b8 cmd/built-in.o
 .text.set_working_fdt_addr
                0x000000004a004b80       0x18 cmd/built-in.o
                0x000000004a004b80                set_working_fdt_addr
 .text.do_fdt   0x000000004a004b98      0xeec cmd/built-in.o
 .text.do_size_wrapper
                0x000000004a005a84        0x8 cmd/built-in.o
 .text.do_load_wrapper
                0x000000004a005a8c       0x80 cmd/built-in.o
 .text.do_save_wrapper
                0x000000004a005b0c        0x8 cmd/built-in.o
 .text.do_ls_wrapper
                0x000000004a005b14        0x8 cmd/built-in.o
 .text.do_fstype_wrapper
                0x000000004a005b1c        0x4 cmd/built-in.o
 .text.gpio_get_description
                0x000000004a005b20       0xc8 cmd/built-in.o
 .text.do_gpio  0x000000004a005be8      0x35c cmd/built-in.o
 .text.evalexp  0x000000004a005f44       0x94 cmd/built-in.o
 .text.evalstr  0x000000004a005fd8       0x5c cmd/built-in.o
 .text.binary_test
                0x000000004a006034      0x1ac cmd/built-in.o
 .text.do_itest
                0x000000004a0061e0       0x90 cmd/built-in.o
 .text.bin_data_init
                0x000000004a006270       0x1c cmd/built-in.o
 .text.k_data_save
                0x000000004a00628c       0x34 cmd/built-in.o
 .text.k_data_restore
                0x000000004a0062c0       0x34 cmd/built-in.o
 .text.getcxmodem
                0x000000004a0062f4       0x24 cmd/built-in.o
 .text.load_serial_ymodem
                0x000000004a006318       0xf0 cmd/built-in.o
 .text.bin_data_char
                0x000000004a006408       0x28 cmd/built-in.o
 .text.chk1.constprop.1
                0x000000004a006430       0x34 cmd/built-in.o
 .text.s1_sendpacket.constprop.2
                0x000000004a006464       0x60 cmd/built-in.o
 .text.load_serial
                0x000000004a0064c4      0x1e4 cmd/built-in.o
 .text.do_load_serial
                0x000000004a0066a8       0xe4 cmd/built-in.o
 .text.do_load_serial_bin
                0x000000004a00678c      0x7dc cmd/built-in.o
 .text.do_mem_loop
                0x000000004a006f68      0x144 cmd/built-in.o
 .text.do_mem_md
                0x000000004a0070ac       0xf4 cmd/built-in.o
 .text.do_mem_cmp
                0x000000004a0071a0      0x1ac cmd/built-in.o
 .text.do_mem_base
                0x000000004a00734c       0x4c cmd/built-in.o
 .text.do_mem_mw
                0x000000004a007398      0x108 cmd/built-in.o
 .text.do_mem_cp
                0x000000004a0074a0       0xc0 cmd/built-in.o
 .text.do_mem_crc
                0x000000004a007560       0x30 cmd/built-in.o
 .text.mod_mem.isra.0
                0x000000004a007590      0x1d8 cmd/built-in.o
 .text.do_mem_mm
                0x000000004a007768        0x8 cmd/built-in.o
 .text.do_mem_nm
                0x000000004a007770        0x8 cmd/built-in.o
 .text.extract_range
                0x000000004a007778       0xf8 cmd/built-in.o
 .text.do_mii   0x000000004a007870      0x8f4 cmd/built-in.o
 .text.do_mdio  0x000000004a008164      0x4a0 cmd/built-in.o
 .text.do_sleep
                0x000000004a008604       0xe8 cmd/built-in.o
 .text.do_mmcops
                0x000000004a0086ec       0xd0 cmd/built-in.o
 .text.init_mmc_device
                0x000000004a0087bc       0x64 cmd/built-in.o
 .text.do_mmc_rescan
                0x000000004a008820       0x28 cmd/built-in.o
 .text.do_mmc_hwpartition
                0x000000004a008848      0x4f0 cmd/built-in.o
 .text.do_mmc_list
                0x000000004a008d38       0x1c cmd/built-in.o
 .text.do_mmc_dev
                0x000000004a008d54      0x14c cmd/built-in.o
 .text.do_mmc_part
                0x000000004a008ea0       0x64 cmd/built-in.o
 .text.do_mmc_erase
                0x000000004a008f04      0x10c cmd/built-in.o
 .text.do_mmc_write
                0x000000004a009010      0x12c cmd/built-in.o
 .text.do_mmc_read
                0x000000004a00913c      0x110 cmd/built-in.o
 .text.do_mmcinfo
                0x000000004a00924c      0x384 cmd/built-in.o
 .text.do_mmc_setdsr
                0x000000004a0095d0       0xbc cmd/built-in.o
 .text.netboot_common
                0x000000004a00968c      0x270 cmd/built-in.o
 .text.do_bootp
                0x000000004a0098fc        0xc cmd/built-in.o
 .text.do_dhcp  0x000000004a009908        0xc cmd/built-in.o
 .text.do_nfs   0x000000004a009914        0xc cmd/built-in.o
 .text.do_tftpb
                0x000000004a009920       0x58 cmd/built-in.o
                0x000000004a009920                do_tftpb
 .text.do_ping  0x000000004a009978       0x7c cmd/built-in.o
 .text.do_part_list
                0x000000004a0099f4      0x18c cmd/built-in.o
 .text.do_part_start
                0x000000004a009b80       0xd8 cmd/built-in.o
 .text.do_part_size
                0x000000004a009c58       0xd8 cmd/built-in.o
 .text.do_part  0x000000004a009d30      0x114 cmd/built-in.o
 .text.eol_or_eof
                0x000000004a009e44       0x24 cmd/built-in.o
 .text.do_pxe   0x000000004a009e68       0x8c cmd/built-in.o
 .text.label_print
                0x000000004a009ef4       0x1c cmd/built-in.o
 .text.do_get_tftp
                0x000000004a009f10       0x3c cmd/built-in.o
 .text.from_env
                0x000000004a009f4c       0x3c cmd/built-in.o
 .text.get_string
                0x000000004a009f88       0xe8 cmd/built-in.o
 .text.label_destroy
                0x000000004a00a070       0x68 cmd/built-in.o
 .text.destroy_pxe_menu
                0x000000004a00a0d8       0x68 cmd/built-in.o
 .text.get_token
                0x000000004a00a140      0x134 cmd/built-in.o
 .text.parse_sliteral
                0x000000004a00a274       0x6c cmd/built-in.o
 .text.parse_integer
                0x000000004a00a2e0       0x84 cmd/built-in.o
 .text.do_get_any
                0x000000004a00a364       0x44 cmd/built-in.o
 .text.do_get_fat
                0x000000004a00a3a8       0x40 cmd/built-in.o
 .text.do_get_ext2
                0x000000004a00a3e8       0x40 cmd/built-in.o
 .text.format_mac_pxe.constprop.6
                0x000000004a00a428       0x6c cmd/built-in.o
 .text.get_relfile
                0x000000004a00a494      0x138 cmd/built-in.o
 .text.get_pxe_file
                0x000000004a00a5cc       0x60 cmd/built-in.o
 .text.handle_include
                0x000000004a00a62c       0xc4 cmd/built-in.o
 .text.parse_pxefile_top
                0x000000004a00a6f0      0x3f8 cmd/built-in.o
 .text.parse_pxefile
                0x000000004a00aae8       0x7c cmd/built-in.o
 .text.get_pxelinux_path
                0x000000004a00ab64       0x98 cmd/built-in.o
 .text.do_pxe_get
                0x000000004a00abfc      0x16c cmd/built-in.o
 .text.get_relfile_envaddr
                0x000000004a00ad68       0x5c cmd/built-in.o
 .text.label_boot
                0x000000004a00adc4      0x574 cmd/built-in.o
 .text.handle_pxe_menu
                0x000000004a00b338      0x174 cmd/built-in.o
 .text.do_pxe_boot
                0x000000004a00b4ac       0xf0 cmd/built-in.o
 .text.do_sysboot
                0x000000004a00b59c      0x1f4 cmd/built-in.o
 .text.substitute
                0x000000004a00b790      0x114 cmd/built-in.o
 .text.get_arg  0x000000004a00b8a4       0x68 cmd/built-in.o
 .text.regex_sub
                0x000000004a00b90c      0x2d0 cmd/built-in.o
 .text.do_setexpr
                0x000000004a00bbdc      0x198 cmd/built-in.o
 .text.do_false
                0x000000004a00bd74        0x8 cmd/built-in.o
 .text.do_true  0x000000004a00bd7c        0x8 cmd/built-in.o
 .text.do_test  0x000000004a00bd84      0x360 cmd/built-in.o
 .text.usb_get_class_desc
                0x000000004a00c0e4       0xc0 cmd/built-in.o
 .text.usb_display_class_sub
                0x000000004a00c1a4      0x18c cmd/built-in.o
 .text.usb_show_tree_graph
                0x000000004a00c330      0x1ec cmd/built-in.o
 .text.usb_show_subtree
                0x000000004a00c51c       0x38 cmd/built-in.o
 .text.usb_for_each_root_dev
                0x000000004a00c554       0x68 cmd/built-in.o
 .text.usb_display_string
                0x000000004a00c5bc       0x4c cmd/built-in.o
 .text.usb_display_config
                0x000000004a00c608      0x270 cmd/built-in.o
 .text.usb_find_device
                0x000000004a00c878       0xb0 cmd/built-in.o
 .text.do_usbboot
                0x000000004a00c928        0xc cmd/built-in.o
 .text.usb_display_desc.part.1
                0x000000004a00c934      0x114 cmd/built-in.o
 .text.do_usb_start
                0x000000004a00ca48       0x30 cmd/built-in.o
 .text.usb_show_info
                0x000000004a00ca78       0x64 cmd/built-in.o
 .text.usb_show_tree
                0x000000004a00cadc        0xc cmd/built-in.o
                0x000000004a00cadc                usb_show_tree
 .text.do_usb   0x000000004a00cae8      0x738 cmd/built-in.o
 .text.common_diskboot
                0x000000004a00d220      0x2ac cmd/built-in.o
                0x000000004a00d220                common_diskboot
 .text.do_imgextract
                0x000000004a00d4cc      0x3b4 cmd/built-in.o
 .text.do_env_delete
                0x000000004a00d880       0xbc cmd/built-in.o
 .text.do_env_exists
                0x000000004a00d93c       0x60 cmd/built-in.o
 .text.do_env_save
                0x000000004a00d99c       0x30 cmd/built-in.o
 .text.do_env   0x000000004a00d9cc       0x80 cmd/built-in.o
 .text.env_print
                0x000000004a00da4c       0xc0 cmd/built-in.o
 .text.do_env_print
                0x000000004a00db0c       0xe0 cmd/built-in.o
 .text.do_env_import
                0x000000004a00dbec      0x268 cmd/built-in.o
 .text.do_env_default
                0x000000004a00de54       0x90 cmd/built-in.o
 .text._do_env_set.isra.0
                0x000000004a00dee4      0x1b8 cmd/built-in.o
 .text.do_env_set
                0x000000004a00e09c       0x20 cmd/built-in.o
 .text.get_env_id
                0x000000004a00e0bc        0xc cmd/built-in.o
                0x000000004a00e0bc                get_env_id
 .text.setenv   0x000000004a00e0c8       0x58 cmd/built-in.o
                0x000000004a00e0c8                setenv
 .text.setenv_ulong
                0x000000004a00e120       0x2c cmd/built-in.o
                0x000000004a00e120                setenv_ulong
 .text.setenv_hex
                0x000000004a00e14c       0x3c cmd/built-in.o
                0x000000004a00e14c                setenv_hex
 .text.do_env_export
                0x000000004a00e188      0x23c cmd/built-in.o
 .text.envmatch
                0x000000004a00e3c4       0x80 cmd/built-in.o
                0x000000004a00e3c4                envmatch
 .text.getenv_f
                0x000000004a00e444       0xf0 cmd/built-in.o
                0x000000004a00e444                getenv_f
 .text.getenv   0x000000004a00e534       0x78 cmd/built-in.o
                0x000000004a00e534                getenv
 .text.getenv_hex
                0x000000004a00e5ac       0x48 cmd/built-in.o
                0x000000004a00e5ac                getenv_hex
 .text.getenv_ulong
                0x000000004a00e5f4       0x40 cmd/built-in.o
                0x000000004a00e5f4                getenv_ulong
 .text.do_env_edit.part.2
                0x000000004a00e634       0xb4 cmd/built-in.o
 .text.do_env_edit
                0x000000004a00e6e8       0x28 cmd/built-in.o
 .text.board_init_f_alloc_reserve
                0x000000004a00e710        0xc common/built-in.o
                0x000000004a00e710                board_init_f_alloc_reserve
 .text.board_init_f_init_reserve
                0x000000004a00e71c       0x30 common/built-in.o
                0x000000004a00e71c                board_init_f_init_reserve
 .text.show_boot_progress
                0x000000004a00e74c        0x8 common/built-in.o
                0x000000004a00e74c                show_boot_progress
 .text.main_loop
                0x000000004a00e754       0x6c common/built-in.o
                0x000000004a00e754                main_loop
 .text.mdelay   0x000000004a00e7c0       0x30 common/built-in.o
 .text.dummy    0x000000004a00e7f0        0x4 common/built-in.o
 .text.get_version
                0x000000004a00e7f4        0x8 common/built-in.o
                0x000000004a00e7f4                get_version
 .text.jumptable_init
                0x000000004a00e7fc      0x1f0 common/built-in.o
                0x000000004a00e7fc                jumptable_init
 .text.hash_finish_crc32
                0x000000004a00e9ec       0x38 common/built-in.o
 .text.hash_update_crc32
                0x000000004a00ea24       0x34 common/built-in.o
 .text.hash_init_crc32
                0x000000004a00ea58       0x30 common/built-in.o
 .text.hash_finish_sha256
                0x000000004a00ea88       0x48 common/built-in.o
 .text.hash_update_sha256
                0x000000004a00ead0       0x24 common/built-in.o
 .text.hash_init_sha256
                0x000000004a00eaf4       0x34 common/built-in.o
 .text.hash_finish_sha1
                0x000000004a00eb28       0x48 common/built-in.o
 .text.hash_update_sha1
                0x000000004a00eb70       0x24 common/built-in.o
 .text.hash_init_sha1
                0x000000004a00eb94       0x34 common/built-in.o
 .text.hash_lookup_algo
                0x000000004a00ebc8       0x78 common/built-in.o
                0x000000004a00ebc8                hash_lookup_algo
 .text.hash_command
                0x000000004a00ec40      0x1d4 common/built-in.o
                0x000000004a00ec40                hash_command
 .text.b_reset  0x000000004a00ee14       0x18 common/built-in.o
 .text.static_get
                0x000000004a00ee2c       0x1c common/built-in.o
 .text.file_peek
                0x000000004a00ee48        0xc common/built-in.o
 .text.mapset   0x000000004a00ee54       0x20 common/built-in.o
 .text.syntax_err
                0x000000004a00ee74        0xc common/built-in.o
 .text.free_pipe_list
                0x000000004a00ee80       0xf4 common/built-in.o
 .text.xmalloc  0x000000004a00ef74       0x28 common/built-in.o
 .text.new_pipe
                0x000000004a00ef9c       0x24 common/built-in.o
 .text.xrealloc
                0x000000004a00efc0       0x28 common/built-in.o
 .text.done_command
                0x000000004a00efe8       0x94 common/built-in.o
 .text.done_pipe
                0x000000004a00f07c       0x50 common/built-in.o
 .text.done_word
                0x000000004a00f0cc      0x294 common/built-in.o
 .text.do_showvar
                0x000000004a00f360      0x108 common/built-in.o
 .text.is_assignment
                0x000000004a00f468       0x4c common/built-in.o
 .text.file_get
                0x000000004a00f4b4      0x200 common/built-in.o
 .text.b_addchr
                0x000000004a00f6b4       0x94 common/built-in.o
 .text.b_addqchr
                0x000000004a00f748       0x58 common/built-in.o
 .text.static_peek
                0x000000004a00f7a0        0xc common/built-in.o
 .text.get_local_var
                0x000000004a00f7ac       0x9c common/built-in.o
                0x000000004a00f7ac                get_local_var
 .text.set_local_var
                0x000000004a00f848      0x1a4 common/built-in.o
                0x000000004a00f848                set_local_var
 .text.insert_var_value_sub
                0x000000004a00f9ec      0x2c0 common/built-in.o
 .text.parse_string_outer
                0x000000004a00fcac       0xf4 common/built-in.o
                0x000000004a00fcac                parse_string_outer
 .text.run_list_real
                0x000000004a00fda0      0x72c common/built-in.o
 .text.parse_stream_outer
                0x000000004a0104cc      0x67c common/built-in.o
 .text.parse_file_outer
                0x000000004a010b48       0x40 common/built-in.o
                0x000000004a010b48                parse_file_outer
 .text.u_boot_hush_start
                0x000000004a010b88       0x5c common/built-in.o
                0x000000004a010b88                u_boot_hush_start
 .text.bootdelay_process
                0x000000004a010be4       0xd0 common/built-in.o
                0x000000004a010be4                bootdelay_process
 .text.autoboot_command
                0x000000004a010cb4      0x110 common/built-in.o
                0x000000004a010cb4                autoboot_command
 .text.setup_mon_len
                0x000000004a010dc4       0x20 common/built-in.o
 .text.reserve_round_4k
                0x000000004a010de4       0x14 common/built-in.o
 .text.reserve_uboot
                0x000000004a010df8       0x2c common/built-in.o
 .text.reserve_malloc
                0x000000004a010e24       0x1c common/built-in.o
 .text.reserve_global_data
                0x000000004a010e40       0x1c common/built-in.o
 .text.reserve_fdt
                0x000000004a010e5c       0x48 common/built-in.o
 .text.initf_console_record
                0x000000004a010ea4        0x8 common/built-in.o
 .text.arch_cpu_init_dm
                0x000000004a010eac        0x8 common/built-in.o
                0x000000004a010eac                arch_cpu_init_dm
 .text.dram_init_banksize
                0x000000004a010eb4       0x34 common/built-in.o
                0x000000004a010eb4                dram_init_banksize
 .text.reserve_mmu
                0x000000004a010ee8       0x4c common/built-in.o
 .text.announce_dram_init
                0x000000004a010f34       0x20 common/built-in.o
 .text.init_baud_rate
                0x000000004a010f54       0x3c common/built-in.o
 .text.mark_bootstage
                0x000000004a010f90       0x1c common/built-in.o
 .text.initf_dm
                0x000000004a010fac        0x8 common/built-in.o
 .text.setup_reloc
                0x000000004a010fb4       0x48 common/built-in.o
 .text.reloc_fdt
                0x000000004a010ffc       0x44 common/built-in.o
 .text.reserve_board
                0x000000004a011040       0x48 common/built-in.o
 .text.reserve_arch
                0x000000004a011088        0x8 common/built-in.o
                0x000000004a011088                reserve_arch
 .text.display_text_info
                0x000000004a011090        0x8 common/built-in.o
 .text.arch_cpu_init
                0x000000004a011098        0x8 common/built-in.o
                0x000000004a011098                arch_cpu_init
 .text.mach_cpu_init
                0x000000004a0110a0        0x8 common/built-in.o
                0x000000004a0110a0                mach_cpu_init
 .text.reserve_video
                0x000000004a0110a8        0x8 common/built-in.o
 .text.reserve_trace
                0x000000004a0110b0        0x8 common/built-in.o
 .text.setup_machine
                0x000000004a0110b8        0x8 common/built-in.o
 .text.display_new_sp
                0x000000004a0110c0        0x8 common/built-in.o
 .text.board_add_ram_info
                0x000000004a0110c8        0x4 common/built-in.o
                0x000000004a0110c8                board_add_ram_info
 .text.show_dram_config
                0x000000004a0110cc       0x38 common/built-in.o
 .text.board_get_usable_ram_top
                0x000000004a011104       0x20 common/built-in.o
                0x000000004a011104                board_get_usable_ram_top
 .text.setup_dest_addr
                0x000000004a011124       0x4c common/built-in.o
 .text.reserve_stacks
                0x000000004a011170       0x1c common/built-in.o
 .text.board_init_f
                0x000000004a01118c       0x2c common/built-in.o
                0x000000004a01118c                board_init_f
 .text.bootstage_relocate
                0x000000004a0111b8        0x8 common/built-in.o
 .text.initr_reloc
                0x000000004a0111c0       0x18 common/built-in.o
 .text.power_init_board
                0x000000004a0111d8        0x8 common/built-in.o
                0x000000004a0111d8                power_init_board
 .text.initr_announce
                0x000000004a0111e0        0x8 common/built-in.o
 .text.init_env_boot_mmc
                0x000000004a0111e8       0x9c common/built-in.o
 .text.run_main_loop
                0x000000004a011284       0x10 common/built-in.o
 .text.initr_net
                0x000000004a011294       0x24 common/built-in.o
 .text.initr_ethaddr
                0x000000004a0112b8       0x28 common/built-in.o
 .text.initr_enable_interrupts
                0x000000004a0112e0       0x18 common/built-in.o
 .text.initr_jumptable
                0x000000004a0112f8       0x18 common/built-in.o
 .text.initr_env
                0x000000004a011310       0x70 common/built-in.o
 .text.initr_mmc
                0x000000004a011380       0x28 common/built-in.o
 .text.initr_serial
                0x000000004a0113a8       0x18 common/built-in.o
 .text.initr_bootstage
                0x000000004a0113c0       0x1c common/built-in.o
 .text.initr_dm
                0x000000004a0113dc       0x14 common/built-in.o
 .text.initr_malloc
                0x000000004a0113f0       0x2c common/built-in.o
 .text.initr_reloc_global_data
                0x000000004a01141c       0x3c common/built-in.o
 .text.initr_caches
                0x000000004a011458       0x18 common/built-in.o
 .text.initr_console_record
                0x000000004a011470        0x8 common/built-in.o
 .text.initr_trace
                0x000000004a011478        0x8 common/built-in.o
 .text.initr_barrier
                0x000000004a011480        0x8 common/built-in.o
 .text.cpu_secondary_init_r
                0x000000004a011488        0x4 common/built-in.o
                0x000000004a011488                cpu_secondary_init_r
 .text.initr_secondary_cpu
                0x000000004a01148c       0x18 common/built-in.o
 .text.nanopi_read_gpio
                0x000000004a0114a4       0xc8 common/built-in.o
                0x000000004a0114a4                nanopi_read_gpio
 .text.nanopi_get_board
                0x000000004a01156c      0x17c common/built-in.o
                0x000000004a01156c                nanopi_get_board
 .text.setup_env_boardtype
                0x000000004a0116e8       0x34 common/built-in.o
 .text.board_init_r
                0x000000004a01171c       0x18 common/built-in.o
                0x000000004a01171c                board_init_r
 .text.checkboard
                0x000000004a011734        0x8 common/built-in.o
                0x000000004a011734                checkboard
 .text.show_board_info
                0x000000004a01173c       0x3c common/built-in.o
                0x000000004a01173c                show_board_info
 .text.bootm_find_images
                0x000000004a011778       0xcc common/built-in.o
                0x000000004a011778                bootm_find_images
 .text.bootm_decomp_image
                0x000000004a011844      0x178 common/built-in.o
                0x000000004a011844                bootm_decomp_image
 .text.bootm_disable_interrupts
                0x000000004a0119bc       0x28 common/built-in.o
                0x000000004a0119bc                bootm_disable_interrupts
 .text.do_bootm_states
                0x000000004a0119e4      0x83c common/built-in.o
                0x000000004a0119e4                do_bootm_states
 .text.copy_args
                0x000000004a012220       0x74 common/built-in.o
 .text.do_bootm_rtems
                0x000000004a012294       0x60 common/built-in.o
 .text.do_bootm_plan9
                0x000000004a0122f4       0xc8 common/built-in.o
 .text.do_bootm_standalone
                0x000000004a0123bc       0x74 common/built-in.o
 .text.do_bootm_qnxelf
                0x000000004a012430       0x8c common/built-in.o
 .text.do_bootm_netbsd
                0x000000004a0124bc      0x13c common/built-in.o
 .text.do_bootvx_fdt
                0x000000004a0125f8      0x114 common/built-in.o
                0x000000004a0125f8                do_bootvx_fdt
 .text.do_bootm_vxworks
                0x000000004a01270c       0x3c common/built-in.o
 .text.arch_preboot_os
                0x000000004a012748        0x4 common/built-in.o
                0x000000004a012748                arch_preboot_os
 .text.boot_selected_os
                0x000000004a01274c       0x78 common/built-in.o
                0x000000004a01274c                boot_selected_os
 .text.bootm_os_get_boot_func
                0x000000004a0127c4       0x10 common/built-in.o
                0x000000004a0127c4                bootm_os_get_boot_func
 .text.regex_callback
                0x000000004a0127d4      0x13c common/built-in.o
 .text.env_attr_walk
                0x000000004a012910      0x148 common/built-in.o
                0x000000004a012910                env_attr_walk
 .text.env_attr_lookup
                0x000000004a012a58       0x7c common/built-in.o
                0x000000004a012a58                env_attr_lookup
 .text.clear_callback
                0x000000004a012ad4        0xc common/built-in.o
 .text.find_env_callback
                0x000000004a012ae0       0x7c common/built-in.o
 .text.on_callbacks
                0x000000004a012b5c       0x60 common/built-in.o
 .text.set_callback
                0x000000004a012bbc       0x90 common/built-in.o
 .text.env_callback_init
                0x000000004a012c4c       0xbc common/built-in.o
                0x000000004a012c4c                env_callback_init
 .text.skip_num
                0x000000004a012d08       0x70 common/built-in.o
 .text.clear_flags
                0x000000004a012d78        0xc common/built-in.o
 .text.on_flags
                0x000000004a012d84       0x60 common/built-in.o
 .text.env_flags_parse_vartype
                0x000000004a012de4       0x58 common/built-in.o
                0x000000004a012de4                env_flags_parse_vartype
 .text.env_flags_parse_varaccess
                0x000000004a012e3c       0x5c common/built-in.o
                0x000000004a012e3c                env_flags_parse_varaccess
 .text.set_flags
                0x000000004a012e98       0xac common/built-in.o
 .text.eth_validate_ethaddr_str
                0x000000004a012f44       0x98 common/built-in.o
                0x000000004a012f44                eth_validate_ethaddr_str
 .text.env_flags_init
                0x000000004a012fdc       0xc8 common/built-in.o
                0x000000004a012fdc                env_flags_init
 .text.env_flags_validate
                0x000000004a0130a4      0x278 common/built-in.o
                0x000000004a0130a4                env_flags_validate
 .text.mmc_get_env_addr
                0x000000004a01331c       0x14 common/built-in.o
                0x000000004a01331c                mmc_get_env_addr
 .text.mmc_get_env_dev
                0x000000004a013330        0x8 common/built-in.o
                0x000000004a013330                mmc_get_env_dev
 .text.env_init
                0x000000004a013338       0x1c common/built-in.o
                0x000000004a013338                env_init
 .text.saveenv  0x000000004a013354      0x12c common/built-in.o
                0x000000004a013354                saveenv
 .text.env_relocate_spec
                0x000000004a013480       0xf0 common/built-in.o
                0x000000004a013480                env_relocate_spec
 .text.of_bus_default_map
                0x000000004a013570       0xa4 common/built-in.o
 .text.of_bus_default_count_cells
                0x000000004a013614       0x70 common/built-in.o
                0x000000004a013614                of_bus_default_count_cells
 .text.of_bus_default_translate
                0x000000004a013684       0xb8 common/built-in.o
 .text.fdt_getprop_u32_default_node
                0x000000004a01373c       0x50 common/built-in.o
                0x000000004a01373c                fdt_getprop_u32_default_node
 .text.fdt_find_and_setprop
                0x000000004a01378c       0x94 common/built-in.o
                0x000000004a01378c                fdt_find_and_setprop
 .text.fdt_find_or_add_subnode
                0x000000004a013820       0x74 common/built-in.o
                0x000000004a013820                fdt_find_or_add_subnode
 .text.fdt_root
                0x000000004a013894       0x98 common/built-in.o
                0x000000004a013894                fdt_root
 .text.fdt_initrd
                0x000000004a01392c      0x1b8 common/built-in.o
                0x000000004a01392c                fdt_initrd
 .text.fdt_chosen
                0x000000004a013ae4       0xf4 common/built-in.o
                0x000000004a013ae4                fdt_chosen
 .text.do_fixup_by_path
                0x000000004a013bd8       0x4c common/built-in.o
                0x000000004a013bd8                do_fixup_by_path
 .text.fdt_fixup_memory_banks
                0x000000004a013c24      0x1e0 common/built-in.o
                0x000000004a013c24                fdt_fixup_memory_banks
 .text.fdt_fixup_memory
                0x000000004a013e04       0x2c common/built-in.o
                0x000000004a013e04                fdt_fixup_memory
 .text.fdt_fixup_ethernet
                0x000000004a013e30      0x1ac common/built-in.o
                0x000000004a013e30                fdt_fixup_ethernet
 .text.fdt_shrink_to_minimum
                0x000000004a013fdc       0xc8 common/built-in.o
                0x000000004a013fdc                fdt_shrink_to_minimum
 .text.fdt_translate_address
                0x000000004a0140a4      0x28c common/built-in.o
                0x000000004a0140a4                fdt_translate_address
 .text.miiphy_get_dev_by_name
                0x000000004a014330       0x6c common/built-in.o
                0x000000004a014330                miiphy_get_dev_by_name
 .text.miiphy_init
                0x000000004a01439c       0x1c common/built-in.o
                0x000000004a01439c                miiphy_init
 .text.mdio_alloc
                0x000000004a0143b8       0x3c common/built-in.o
                0x000000004a0143b8                mdio_alloc
 .text.mdio_register
                0x000000004a0143f4       0x8c common/built-in.o
                0x000000004a0143f4                mdio_register
 .text.mdio_list_devices
                0x000000004a014480       0xd4 common/built-in.o
                0x000000004a014480                mdio_list_devices
 .text.miiphy_set_current_dev
                0x000000004a014554       0x48 common/built-in.o
                0x000000004a014554                miiphy_set_current_dev
 .text.miiphy_get_active_dev
                0x000000004a01459c       0x60 common/built-in.o
 .text.mdio_get_current_dev
                0x000000004a0145fc        0xc common/built-in.o
                0x000000004a0145fc                mdio_get_current_dev
 .text.mdio_phydev_for_ethname
                0x000000004a014608       0xa0 common/built-in.o
                0x000000004a014608                mdio_phydev_for_ethname
 .text.miiphy_get_current_dev
                0x000000004a0146a8       0x18 common/built-in.o
                0x000000004a0146a8                miiphy_get_current_dev
 .text.miiphy_read
                0x000000004a0146c0       0x5c common/built-in.o
                0x000000004a0146c0                miiphy_read
 .text.miiphy_write
                0x000000004a01471c       0x5c common/built-in.o
                0x000000004a01471c                miiphy_write
 .text.miiphy_listdev
                0x000000004a014778       0x90 common/built-in.o
                0x000000004a014778                miiphy_listdev
 .text.miiphy_info
                0x000000004a014808       0xa0 common/built-in.o
                0x000000004a014808                miiphy_info
 .text.miiphy_speed
                0x000000004a0148a8       0xc8 common/built-in.o
                0x000000004a0148a8                miiphy_speed
 .text.miiphy_duplex
                0x000000004a014970       0xc8 common/built-in.o
                0x000000004a014970                miiphy_duplex
 .text.miiphy_is_1000base_x
                0x000000004a014a38        0x8 common/built-in.o
                0x000000004a014a38                miiphy_is_1000base_x
 .text.usb_set_maxpacket_ep
                0x000000004a014a40       0x84 common/built-in.o
 .text.usb_control_msg
                0x000000004a014ac4       0xa0 common/built-in.o
                0x000000004a014ac4                usb_control_msg
 .text.usb_get_descriptor
                0x000000004a014b64       0x5c common/built-in.o
 .text.get_descriptor_len
                0x000000004a014bc0       0xa4 common/built-in.o
 .text.usb_get_string
                0x000000004a014c64       0xa4 common/built-in.o
 .text.usb_string_sub
                0x000000004a014d08      0x114 common/built-in.o
 .text.usb_bulk_msg
                0x000000004a014e1c       0x7c common/built-in.o
                0x000000004a014e1c                usb_bulk_msg
 .text.usb_maxpacket
                0x000000004a014e98       0x20 common/built-in.o
                0x000000004a014e98                usb_maxpacket
 .text.usb_clear_halt
                0x000000004a014eb8       0xa0 common/built-in.o
                0x000000004a014eb8                usb_clear_halt
 .text.usb_get_configuration_len
                0x000000004a014f58       0x78 common/built-in.o
                0x000000004a014f58                usb_get_configuration_len
 .text.usb_get_configuration_no
                0x000000004a014fd0       0x40 common/built-in.o
                0x000000004a014fd0                usb_get_configuration_no
 .text.usb_set_interface
                0x000000004a015010       0xbc common/built-in.o
                0x000000004a015010                usb_set_interface
 .text.usb_set_protocol
                0x000000004a0150cc       0x4c common/built-in.o
                0x000000004a0150cc                usb_set_protocol
 .text.usb_set_idle
                0x000000004a015118       0x4c common/built-in.o
                0x000000004a015118                usb_set_idle
 .text.usb_string
                0x000000004a015164      0x108 common/built-in.o
                0x000000004a015164                usb_string
 .text.usb_select_config
                0x000000004a01526c      0x4bc common/built-in.o
                0x000000004a01526c                usb_select_config
 .text.usb_setup_device
                0x000000004a015728      0x1b0 common/built-in.o
                0x000000004a015728                usb_setup_device
 .text.usb_device_has_child_on_port
                0x000000004a0158d8        0x8 common/built-in.o
                0x000000004a0158d8                usb_device_has_child_on_port
 .text.usb_find_usb2_hub_address_port
                0x000000004a0158e0       0x90 common/built-in.o
                0x000000004a0158e0                usb_find_usb2_hub_address_port
 .text.usb_set_port_feature
                0x000000004a015970       0x4c common/built-in.o
 .text.usb_clear_port_feature
                0x000000004a0159bc       0x4c common/built-in.o
 .text.usb_get_hub_descriptor
                0x000000004a015a08       0x54 common/built-in.o
 .text.usb_hub_reset_devices
                0x000000004a015a5c        0x4 common/built-in.o
                0x000000004a015a5c                usb_hub_reset_devices
 .text.usb_get_port_status
                0x000000004a015a60       0x54 common/built-in.o
                0x000000004a015a60                usb_get_port_status
 .text.usb_hub_reset
                0x000000004a015ab4       0x1c common/built-in.o
                0x000000004a015ab4                usb_hub_reset
 .text.legacy_hub_port_reset
                0x000000004a015ad0       0xb0 common/built-in.o
                0x000000004a015ad0                legacy_hub_port_reset
 .text.usb_hub_port_connect_change
                0x000000004a015b80      0x12c common/built-in.o
                0x000000004a015b80                usb_hub_port_connect_change
 .text.usb_hub_configure
                0x000000004a015cac      0x4a8 common/built-in.o
 .text.usb_hub_scan
                0x000000004a016154       0x14 common/built-in.o
                0x000000004a016154                usb_hub_scan
 .text.usb_hub_post_probe
                0x000000004a016168        0x4 common/built-in.o
 .text.usb_stor_irq
                0x000000004a01616c       0x18 common/built-in.o
 .text.usb_stor_BBB_reset
                0x000000004a016184      0x110 common/built-in.o
 .text.usb_stor_CB_reset
                0x000000004a016294       0xe8 common/built-in.o
 .text.usb_stor_BBB_clear_endpt_stall.isra.0
                0x000000004a01637c       0x4c common/built-in.o
 .text.usb_stor_BBB_transport
                0x000000004a0163c8      0x254 common/built-in.o
 .text.usb_stor_CB_comdat
                0x000000004a01661c      0x1f4 common/built-in.o
 .text.usb_stor_CBI_get_status.isra.2
                0x000000004a016810       0xd4 common/built-in.o
 .text.usb_stor_CB_transport
                0x000000004a0168e4      0x200 common/built-in.o
 .text.usb_request_sense.constprop.10
                0x000000004a016ae4       0x8c common/built-in.o
 .text.usb_stor_read
                0x000000004a016b70      0x188 common/built-in.o
 .text.usb_stor_write
                0x000000004a016cf8      0x188 common/built-in.o
 .text.usb_stor_info
                0x000000004a016e80       0x8c common/built-in.o
                0x000000004a016e80                usb_stor_info
 .text.usb_stor_reset
                0x000000004a016f0c        0xc common/built-in.o
                0x000000004a016f0c                usb_stor_reset
 .text.usb_stor_scan
                0x000000004a016f18       0x4c common/built-in.o
                0x000000004a016f18                usb_stor_scan
 .text.usb_storage_probe
                0x000000004a016f64      0x240 common/built-in.o
                0x000000004a016f64                usb_storage_probe
 .text.usb_stor_get_info
                0x000000004a0171a4      0x2fc common/built-in.o
                0x000000004a0171a4                usb_stor_get_info
 .text.usb_mass_storage_probe
                0x000000004a0174a0      0x1e4 common/built-in.o
 .text.iomux_doenv
                0x000000004a017684      0x1c8 common/built-in.o
                0x000000004a017684                iomux_doenv
 .text.menu_display_statusline
                0x000000004a01784c        0x4 common/built-in.o
                0x000000004a01784c                menu_display_statusline
 .text.menu_default_set
                0x000000004a017850       0x98 common/built-in.o
                0x000000004a017850                menu_default_set
 .text.menu_get_choice
                0x000000004a0178e8      0x1ec common/built-in.o
                0x000000004a0178e8                menu_get_choice
 .text.menu_item_add
                0x000000004a017ad4       0xdc common/built-in.o
                0x000000004a017ad4                menu_item_add
 .text.menu_create
                0x000000004a017bb0       0xa4 common/built-in.o
                0x000000004a017bb0                menu_create
 .text.menu_destroy
                0x000000004a017c54       0x80 common/built-in.o
                0x000000004a017c54                menu_destroy
 .text.usb_kbd_remove
                0x000000004a017cd4       0xb8 common/built-in.o
 .text.usb_kbd_translate.part.0
                0x000000004a017d8c      0x160 common/built-in.o
 .text.usb_kbd_probe
                0x000000004a017eec      0x1d8 common/built-in.o
 .text.usb_kbd_irq_worker
                0x000000004a0180c4      0x1bc common/built-in.o
 .text.usb_kbd_getc
                0x000000004a018280       0xe0 common/built-in.o
 .text.usb_kbd_testc
                0x000000004a018360       0xe0 common/built-in.o
 .text.usb_kbd_irq
                0x000000004a018440       0x20 common/built-in.o
 .text.env_get_char_spec
                0x000000004a018460        0xc common/built-in.o
                0x000000004a018460                env_get_char_spec
 .text.env_get_addr
                0x000000004a01846c       0x24 common/built-in.o
                0x000000004a01846c                env_get_addr
 .text.env_get_char_memory
                0x000000004a018490       0x18 common/built-in.o
                0x000000004a018490                env_get_char_memory
 .text.env_get_char
                0x000000004a0184a8       0x2c common/built-in.o
                0x000000004a0184a8                env_get_char
 .text.getenv_yesno
                0x000000004a0184d4       0x4c common/built-in.o
                0x000000004a0184d4                getenv_yesno
 .text.getenv_default
                0x000000004a018520       0x3c common/built-in.o
                0x000000004a018520                getenv_default
 .text.set_default_env
                0x000000004a01855c       0xbc common/built-in.o
                0x000000004a01855c                set_default_env
 .text.set_default_vars
                0x000000004a018618       0x2c common/built-in.o
                0x000000004a018618                set_default_vars
 .text.env_import
                0x000000004a018644       0xdc common/built-in.o
                0x000000004a018644                env_import
 .text.env_export
                0x000000004a018720       0x94 common/built-in.o
                0x000000004a018720                env_export
 .text.env_relocate
                0x000000004a0187b4       0x2c common/built-in.o
                0x000000004a0187b4                env_relocate
 .text.env_complete
                0x000000004a0187e0      0x104 common/built-in.o
                0x000000004a0187e0                env_complete
 .text.console_tstc
                0x000000004a0188e4       0x98 common/built-in.o
 .text.console_putc
                0x000000004a01897c       0x70 common/built-in.o
 .text.console_puts
                0x000000004a0189ec       0x70 common/built-in.o
 .text.pre_console_putc
                0x000000004a018a5c       0x1c common/built-in.o
 .text.on_console
                0x000000004a018a78       0xc4 common/built-in.o
 .text.serial_printf
                0x000000004a018b3c       0xb0 common/built-in.o
                0x000000004a018b3c                serial_printf
 .text.console_getc.isra.0
                0x000000004a018bec       0x30 common/built-in.o
 .text.putc     0x000000004a018c1c       0x44 common/built-in.o
                0x000000004a018c1c                putc
 .text.tstc     0x000000004a018c60       0x24 common/built-in.o
                0x000000004a018c60                tstc
 .text.getc     0x000000004a018c84       0x4c common/built-in.o
                0x000000004a018c84                getc
 .text.puts     0x000000004a018cd0       0x6c common/built-in.o
                0x000000004a018cd0                puts
 .text.print_pre_console_buffer
                0x000000004a018d3c      0x100 common/built-in.o
 .text.ctrlc    0x000000004a018e3c       0x58 common/built-in.o
                0x000000004a018e3c                ctrlc
 .text.disable_ctrlc
                0x000000004a018e94       0x14 common/built-in.o
                0x000000004a018e94                disable_ctrlc
 .text.had_ctrlc
                0x000000004a018ea8        0xc common/built-in.o
                0x000000004a018ea8                had_ctrlc
 .text.clear_ctrlc
                0x000000004a018eb4        0xc common/built-in.o
                0x000000004a018eb4                clear_ctrlc
 .text.search_device
                0x000000004a018ec0       0x34 common/built-in.o
                0x000000004a018ec0                search_device
 .text.console_assign
                0x000000004a018ef4       0xdc common/built-in.o
                0x000000004a018ef4                console_assign
 .text.console_init_f
                0x000000004a018fd0       0x24 common/built-in.o
                0x000000004a018fd0                console_init_f
 .text.stdio_print_current_devices
                0x000000004a018ff4       0xc0 common/built-in.o
                0x000000004a018ff4                stdio_print_current_devices
 .text.console_init_r
                0x000000004a0190b4      0x1c4 common/built-in.o
                0x000000004a0190b4                console_init_r
 .text.sbrk     0x000000004a019278       0x74 common/built-in.o
                0x000000004a019278                sbrk
 .text.mem_malloc_init
                0x000000004a0192ec       0x20 common/built-in.o
                0x000000004a0192ec                mem_malloc_init
 .text.malloc_trim
                0x000000004a01930c       0xd8 common/built-in.o
                0x000000004a01930c                malloc_trim
 .text.free     0x000000004a0193e4      0x230 common/built-in.o
                0x000000004a0193e4                free
 .text.malloc   0x000000004a019614      0x660 common/built-in.o
                0x000000004a019614                malloc
 .text.calloc   0x000000004a019c74       0xe4 common/built-in.o
                0x000000004a019c74                calloc
 .text.realloc  0x000000004a019d58      0x47c common/built-in.o
                0x000000004a019d58                realloc
 .text.memalign
                0x000000004a01a1d4      0x190 common/built-in.o
                0x000000004a01a1d4                memalign
 .text.initf_malloc
                0x000000004a01a364       0x18 common/built-in.o
                0x000000004a01a364                initf_malloc
 .text.malloc_simple
                0x000000004a01a37c       0x38 common/built-in.o
                0x000000004a01a37c                malloc_simple
 .text.on_loadaddr
                0x000000004a01a3b4       0x40 common/built-in.o
 .text.image_check_hcrc
                0x000000004a01a3f4       0x50 common/built-in.o
                0x000000004a01a3f4                image_check_hcrc
 .text.image_check_dcrc
                0x000000004a01a444       0x44 common/built-in.o
                0x000000004a01a444                image_check_dcrc
 .text.image_multi_count
                0x000000004a01a488       0x1c common/built-in.o
                0x000000004a01a488                image_multi_count
 .text.image_multi_getimg
                0x000000004a01a4a4       0x88 common/built-in.o
                0x000000004a01a4a4                image_multi_getimg
 .text.getenv_bootm_low
                0x000000004a01a52c       0x34 common/built-in.o
                0x000000004a01a52c                getenv_bootm_low
 .text.getenv_bootm_size
                0x000000004a01a560       0x78 common/built-in.o
                0x000000004a01a560                getenv_bootm_size
 .text.getenv_bootm_mapsize
                0x000000004a01a5d8       0x30 common/built-in.o
                0x000000004a01a5d8                getenv_bootm_mapsize
 .text.memmove_wd
                0x000000004a01a608       0x10 common/built-in.o
                0x000000004a01a608                memmove_wd
 .text.genimg_print_size
                0x000000004a01a618       0x38 common/built-in.o
                0x000000004a01a618                genimg_print_size
 .text.get_table_entry
                0x000000004a01a650       0x20 common/built-in.o
                0x000000004a01a650                get_table_entry
 .text.get_table_entry_name
                0x000000004a01a670       0x28 common/built-in.o
                0x000000004a01a670                get_table_entry_name
 .text.genimg_get_os_name
                0x000000004a01a698       0x18 common/built-in.o
                0x000000004a01a698                genimg_get_os_name
 .text.genimg_get_arch_name
                0x000000004a01a6b0       0x18 common/built-in.o
                0x000000004a01a6b0                genimg_get_arch_name
 .text.genimg_get_type_name
                0x000000004a01a6c8       0x18 common/built-in.o
                0x000000004a01a6c8                genimg_get_type_name
 .text.genimg_get_comp_name
                0x000000004a01a6e0       0x18 common/built-in.o
                0x000000004a01a6e0                genimg_get_comp_name
 .text.image_print_contents
                0x000000004a01a6f8      0x1bc common/built-in.o
                0x000000004a01a6f8                image_print_contents
 .text.get_table_entry_id
                0x000000004a01a8b4       0x50 common/built-in.o
                0x000000004a01a8b4                get_table_entry_id
 .text.genimg_get_os_id
                0x000000004a01a904       0x18 common/built-in.o
                0x000000004a01a904                genimg_get_os_id
 .text.genimg_get_arch_id
                0x000000004a01a91c       0x18 common/built-in.o
                0x000000004a01a91c                genimg_get_arch_id
 .text.genimg_get_type_id
                0x000000004a01a934       0x18 common/built-in.o
                0x000000004a01a934                genimg_get_type_id
 .text.genimg_get_comp_id
                0x000000004a01a94c       0x18 common/built-in.o
                0x000000004a01a94c                genimg_get_comp_id
 .text.genimg_get_kernel_addr_fit
                0x000000004a01a964       0x7c common/built-in.o
                0x000000004a01a964                genimg_get_kernel_addr_fit
 .text.genimg_get_kernel_addr
                0x000000004a01a9e0       0x24 common/built-in.o
                0x000000004a01a9e0                genimg_get_kernel_addr
 .text.genimg_get_format
                0x000000004a01aa04       0x3c common/built-in.o
                0x000000004a01aa04                genimg_get_format
 .text.genimg_get_image
                0x000000004a01aa40        0x4 common/built-in.o
                0x000000004a01aa40                genimg_get_image
 .text.genimg_has_config
                0x000000004a01aa44       0x10 common/built-in.o
                0x000000004a01aa44                genimg_has_config
 .text.boot_get_ramdisk
                0x000000004a01aa54      0x350 common/built-in.o
                0x000000004a01aa54                boot_get_ramdisk
 .text.boot_ramdisk_high
                0x000000004a01ada4      0x138 common/built-in.o
                0x000000004a01ada4                boot_ramdisk_high
 .text.boot_get_setup
                0x000000004a01aedc        0x4 common/built-in.o
                0x000000004a01aedc                boot_get_setup
 .text.boot_get_loadable
                0x000000004a01aee0      0x190 common/built-in.o
                0x000000004a01aee0                boot_get_loadable
 .text.image_setup_linux
                0x000000004a01b070       0x6c common/built-in.o
                0x000000004a01b070                image_setup_linux
 .text.fdt_error
                0x000000004a01b0dc       0x38 common/built-in.o
 .text.boot_fdt_add_mem_rsv_regions
                0x000000004a01b114       0x94 common/built-in.o
                0x000000004a01b114                boot_fdt_add_mem_rsv_regions
 .text.boot_relocate_fdt
                0x000000004a01b1a8      0x1b4 common/built-in.o
                0x000000004a01b1a8                boot_relocate_fdt
 .text.boot_get_fdt
                0x000000004a01b35c      0x3b0 common/built-in.o
                0x000000004a01b35c                boot_get_fdt
 .text.ft_verify_fdt
                0x000000004a01b70c        0x8 common/built-in.o
                0x000000004a01b70c                ft_verify_fdt
 .text.image_setup_libfdt
                0x000000004a01b714      0x148 common/built-in.o
                0x000000004a01b714                image_setup_libfdt
 .text.fit_image_get_address
                0x000000004a01b85c       0x84 common/built-in.o
 .text.fit_parse_conf
                0x000000004a01b8e0       0x78 common/built-in.o
                0x000000004a01b8e0                fit_parse_conf
 .text.fit_parse_subimage
                0x000000004a01b958       0x78 common/built-in.o
                0x000000004a01b958                fit_parse_subimage
 .text.fit_get_desc
                0x000000004a01b9d0       0x38 common/built-in.o
                0x000000004a01b9d0                fit_get_desc
 .text.fit_image_get_node
                0x000000004a01ba08       0x48 common/built-in.o
                0x000000004a01ba08                fit_image_get_node
 .text.fit_image_get_os
                0x000000004a01ba50       0x4c common/built-in.o
                0x000000004a01ba50                fit_image_get_os
 .text.fit_image_get_arch
                0x000000004a01ba9c       0x4c common/built-in.o
                0x000000004a01ba9c                fit_image_get_arch
 .text.fit_image_get_type
                0x000000004a01bae8       0x4c common/built-in.o
                0x000000004a01bae8                fit_image_get_type
 .text.fit_image_get_comp
                0x000000004a01bb34       0x4c common/built-in.o
                0x000000004a01bb34                fit_image_get_comp
 .text.fit_image_get_load
                0x000000004a01bb80       0x10 common/built-in.o
                0x000000004a01bb80                fit_image_get_load
 .text.fit_image_get_entry
                0x000000004a01bb90       0x10 common/built-in.o
                0x000000004a01bb90                fit_image_get_entry
 .text.fit_image_get_data
                0x000000004a01bba0       0x50 common/built-in.o
                0x000000004a01bba0                fit_image_get_data
 .text.fit_image_hash_get_algo
                0x000000004a01bbf0       0x38 common/built-in.o
                0x000000004a01bbf0                fit_image_hash_get_algo
 .text.fit_image_hash_get_value
                0x000000004a01bc28       0x50 common/built-in.o
                0x000000004a01bc28                fit_image_hash_get_value
 .text.fit_image_print_data
                0x000000004a01bc78      0x158 common/built-in.o
 .text.fit_image_print
                0x000000004a01bdd0      0x35c common/built-in.o
                0x000000004a01bdd0                fit_image_print
 .text.fit_get_end
                0x000000004a01c12c       0x10 common/built-in.o
                0x000000004a01c12c                fit_get_end
 .text.calculate_hash
                0x000000004a01c13c      0x11c common/built-in.o
                0x000000004a01c13c                calculate_hash
 .text.fit_image_verify
                0x000000004a01c258      0x218 common/built-in.o
                0x000000004a01c258                fit_image_verify
 .text.fit_all_image_verify
                0x000000004a01c470      0x114 common/built-in.o
                0x000000004a01c470                fit_all_image_verify
 .text.fit_image_check_os
                0x000000004a01c584       0x3c common/built-in.o
                0x000000004a01c584                fit_image_check_os
 .text.fit_image_check_arch
                0x000000004a01c5c0       0x64 common/built-in.o
                0x000000004a01c5c0                fit_image_check_arch
 .text.fit_image_check_type
                0x000000004a01c624       0x3c common/built-in.o
                0x000000004a01c624                fit_image_check_type
 .text.fit_image_check_comp
                0x000000004a01c660       0x3c common/built-in.o
                0x000000004a01c660                fit_image_check_comp
 .text.fit_check_format
                0x000000004a01c69c       0x54 common/built-in.o
                0x000000004a01c69c                fit_check_format
 .text.fit_conf_get_node
                0x000000004a01c6f0       0x80 common/built-in.o
                0x000000004a01c6f0                fit_conf_get_node
 .text.fit_conf_get_prop_node
                0x000000004a01c770       0x3c common/built-in.o
                0x000000004a01c770                fit_conf_get_prop_node
 .text.fit_conf_print
                0x000000004a01c7ac      0x1c8 common/built-in.o
                0x000000004a01c7ac                fit_conf_print
 .text.fit_print_contents
                0x000000004a01c974      0x220 common/built-in.o
                0x000000004a01c974                fit_print_contents
 .text.fit_get_node_from_config
                0x000000004a01cb94       0x54 common/built-in.o
                0x000000004a01cb94                fit_get_node_from_config
 .text.fit_image_load
                0x000000004a01cbe8      0x570 common/built-in.o
                0x000000004a01cbe8                fit_image_load
 .text.boot_get_setup_fit
                0x000000004a01d158       0x78 common/built-in.o
                0x000000004a01d158                boot_get_setup_fit
 .text.get_ram_size
                0x000000004a01d1d0      0x11c common/built-in.o
                0x000000004a01d1d0                get_ram_size
 .text.get_effective_memsize
                0x000000004a01d2ec        0x8 common/built-in.o
                0x000000004a01d2ec                get_effective_memsize
 .text.nulldev_putc
                0x000000004a01d2f4        0x4 common/built-in.o
 .text.nulldev_puts
                0x000000004a01d2f8        0x4 common/built-in.o
 .text.nulldev_input
                0x000000004a01d2fc        0x8 common/built-in.o
 .text.stdio_serial_tstc
                0x000000004a01d304        0x4 common/built-in.o
 .text.stdio_serial_getc
                0x000000004a01d308        0x4 common/built-in.o
 .text.stdio_serial_puts
                0x000000004a01d30c        0x8 common/built-in.o
 .text.stdio_serial_putc
                0x000000004a01d314        0x8 common/built-in.o
 .text.stdio_get_list
                0x000000004a01d31c       0x10 common/built-in.o
                0x000000004a01d31c                stdio_get_list
 .text.stdio_get_by_name
                0x000000004a01d32c       0x6c common/built-in.o
                0x000000004a01d32c                stdio_get_by_name
 .text.stdio_clone
                0x000000004a01d398       0x4c common/built-in.o
                0x000000004a01d398                stdio_clone
 .text.stdio_register_dev
                0x000000004a01d3e4       0x58 common/built-in.o
                0x000000004a01d3e4                stdio_register_dev
 .text.stdio_register
                0x000000004a01d43c        0x8 common/built-in.o
                0x000000004a01d43c                stdio_register
 .text.stdio_deregister_dev
                0x000000004a01d444      0x104 common/built-in.o
                0x000000004a01d444                stdio_deregister_dev
 .text.stdio_init_tables
                0x000000004a01d548       0x18 common/built-in.o
                0x000000004a01d548                stdio_init_tables
 .text.stdio_add_devices
                0x000000004a01d560      0x13c common/built-in.o
                0x000000004a01d560                stdio_add_devices
 .text.cli_simple_process_macros
                0x000000004a01d69c      0x228 common/built-in.o
                0x000000004a01d69c                cli_simple_process_macros
 .text.run_command
                0x000000004a01d8c4       0x14 common/built-in.o
                0x000000004a01d8c4                run_command
 .text.run_command_list
                0x000000004a01d8d8       0x90 common/built-in.o
                0x000000004a01d8d8                run_command_list
 .text.do_run   0x000000004a01d968       0x80 common/built-in.o
                0x000000004a01d968                do_run
 .text.cli_process_fdt
                0x000000004a01d9e8       0x50 common/built-in.o
                0x000000004a01d9e8                cli_process_fdt
 .text.cli_secure_boot_cmd
                0x000000004a01da38       0x74 common/built-in.o
                0x000000004a01da38                cli_secure_boot_cmd
 .text.cli_loop
                0x000000004a01daac       0x10 common/built-in.o
                0x000000004a01daac                cli_loop
 .text.cli_init
                0x000000004a01dabc        0x4 common/built-in.o
                0x000000004a01dabc                cli_init
 .text.delete_char.part.0
                0x000000004a01dac0       0xfc common/built-in.o
 .text.cread_add_char
                0x000000004a01dbbc      0x100 common/built-in.o
 .text.cli_readline_into_buffer
                0x000000004a01dcbc      0x934 common/built-in.o
                0x000000004a01dcbc                cli_readline_into_buffer
 .text.cli_readline
                0x000000004a01e5f0       0x14 common/built-in.o
                0x000000004a01e5f0                cli_readline
 .text.find_cmd_tbl
                0x000000004a01e604       0xbc common/built-in.o
                0x000000004a01e604                find_cmd_tbl
 .text.find_cmd
                0x000000004a01e6c0       0x28 common/built-in.o
                0x000000004a01e6c0                find_cmd
 .text.cmd_usage
                0x000000004a01e6e8       0x68 common/built-in.o
                0x000000004a01e6e8                cmd_usage
 .text._do_help
                0x000000004a01e750      0x18c common/built-in.o
                0x000000004a01e750                _do_help
 .text.var_complete
                0x000000004a01e8dc       0x90 common/built-in.o
                0x000000004a01e8dc                var_complete
 .text.cmd_auto_complete
                0x000000004a01e96c      0x4a0 common/built-in.o
                0x000000004a01e96c                cmd_auto_complete
 .text.cmd_get_data_size
                0x000000004a01ee0c       0x6c common/built-in.o
                0x000000004a01ee0c                cmd_get_data_size
 .text.cmd_process
                0x000000004a01ee78      0x10c common/built-in.o
                0x000000004a01ee78                cmd_process
 .text.cmd_process_error
                0x000000004a01ef84       0x38 common/built-in.o
                0x000000004a01ef84                cmd_process_error
 .text.hex1_bin
                0x000000004a01efbc       0x4c common/built-in.o
 .text.hex2_bin
                0x000000004a01f008       0x40 common/built-in.o
 .text.srec_decode
                0x000000004a01f048      0x22c common/built-in.o
                0x000000004a01f048                srec_decode
 .text.CYGACC_COMM_IF_GETC_TIMEOUT.isra.0
                0x000000004a01f274       0x54 common/built-in.o
 .text.xyzModem_flush
                0x000000004a01f2c8       0x1c common/built-in.o
 .text.xyzModem_get_hdr
                0x000000004a01f2e4      0x218 common/built-in.o
 .text.xyzModem_stream_open
                0x000000004a01f4fc      0x278 common/built-in.o
                0x000000004a01f4fc                xyzModem_stream_open
 .text.xyzModem_stream_read
                0x000000004a01f774      0x264 common/built-in.o
                0x000000004a01f774                xyzModem_stream_read
 .text.xyzModem_stream_close
                0x000000004a01f9d8       0x40 common/built-in.o
                0x000000004a01f9d8                xyzModem_stream_close
 .text.xyzModem_stream_terminate
                0x000000004a01fa18       0xa4 common/built-in.o
                0x000000004a01fa18                xyzModem_stream_terminate
 .text.xyzModem_error
                0x000000004a01fabc       0x28 common/built-in.o
                0x000000004a01fabc                xyzModem_error
 .text.blk_get_dev
                0x000000004a01fae4       0x3c disk/built-in.o
                0x000000004a01fae4                blk_get_dev
 .text.dev_print
                0x000000004a01fb20      0x1c8 disk/built-in.o
                0x000000004a01fb20                dev_print
 .text.part_init
                0x000000004a01fce8       0x7c disk/built-in.o
                0x000000004a01fce8                part_init
 .text.part_print
                0x000000004a01fd64      0x15c disk/built-in.o
                0x000000004a01fd64                part_print
 .text.part_get_info
                0x000000004a01fec0       0x88 disk/built-in.o
                0x000000004a01fec0                part_get_info
 .text.blk_get_device_by_str
                0x000000004a01ff48      0x164 disk/built-in.o
                0x000000004a01ff48                blk_get_device_by_str
 .text.blk_get_device_part_str
                0x000000004a0200ac      0x39c disk/built-in.o
                0x000000004a0200ac                blk_get_device_part_str
 .text.part_set_generic_name
                0x000000004a020448       0x48 disk/built-in.o
                0x000000004a020448                part_set_generic_name
 .text.test_block_type
                0x000000004a020490       0x90 disk/built-in.o
 .text.print_partition_extended
                0x000000004a020520      0x250 disk/built-in.o
 .text.part_print_dos
                0x000000004a020770       0x3c disk/built-in.o
                0x000000004a020770                part_print_dos
 .text.part_test_dos
                0x000000004a0207ac       0x6c disk/built-in.o
 .text.part_get_info_extended
                0x000000004a020818      0x2ac disk/built-in.o
 .text.part_get_info_dos
                0x000000004a020ac4       0x1c disk/built-in.o
                0x000000004a020ac4                part_get_info_dos
 .text.iso_dread
                0x000000004a020ae0       0x4c disk/built-in.o
                0x000000004a020ae0                iso_dread
 .text.part_get_info_iso_verb
                0x000000004a020b2c      0x37c disk/built-in.o
                0x000000004a020b2c                part_get_info_iso_verb
 .text.part_test_iso
                0x000000004a020ea8       0x20 disk/built-in.o
 .text.part_print_iso
                0x000000004a020ec8       0xa4 disk/built-in.o
 .text.part_get_info_iso
                0x000000004a020f6c        0x8 disk/built-in.o
 .text.print_efiname
                0x000000004a020f74       0x5c disk/built-in.o
 .text.part_test_efi
                0x000000004a020fd0       0xb4 disk/built-in.o
 .text.validate_gpt_entries
                0x000000004a021084       0xa8 disk/built-in.o
 .text.validate_gpt_header
                0x000000004a02112c      0x230 disk/built-in.o
 .text.is_gpt_valid
                0x000000004a02135c      0x1e8 disk/built-in.o
 .text.is_pte_valid
                0x000000004a021544       0x64 disk/built-in.o
 .text.part_print_efi
                0x000000004a0215a8      0x278 disk/built-in.o
                0x000000004a0215a8                part_print_efi
 .text.part_get_info_efi
                0x000000004a021820      0x23c disk/built-in.o
                0x000000004a021820                part_get_info_efi
 .text.device_bind_common.isra.0
                0x000000004a021a5c      0x310 drivers/built-in.o
 .text.alloc_priv
                0x000000004a021d6c       0x64 drivers/built-in.o
 .text.device_bind_with_driver_data
                0x000000004a021dd0       0x14 drivers/built-in.o
                0x000000004a021dd0                device_bind_with_driver_data
 .text.device_bind
                0x000000004a021de4       0x10 drivers/built-in.o
                0x000000004a021de4                device_bind
 .text.device_bind_by_name
                0x000000004a021df4       0x7c drivers/built-in.o
                0x000000004a021df4                device_bind_by_name
 .text.device_probe
                0x000000004a021e70      0x1f4 drivers/built-in.o
                0x000000004a021e70                device_probe
 .text.dev_get_platdata
                0x000000004a022064       0x34 drivers/built-in.o
                0x000000004a022064                dev_get_platdata
 .text.dev_get_parent_platdata
                0x000000004a022098       0x34 drivers/built-in.o
                0x000000004a022098                dev_get_parent_platdata
 .text.dev_get_uclass_platdata
                0x000000004a0220cc       0x34 drivers/built-in.o
                0x000000004a0220cc                dev_get_uclass_platdata
 .text.dev_get_priv
                0x000000004a022100       0x34 drivers/built-in.o
                0x000000004a022100                dev_get_priv
 .text.dev_get_uclass_priv
                0x000000004a022134       0x34 drivers/built-in.o
                0x000000004a022134                dev_get_uclass_priv
 .text.dev_get_parent_priv
                0x000000004a022168       0x34 drivers/built-in.o
                0x000000004a022168                dev_get_parent_priv
 .text.device_get_child
                0x000000004a02219c       0x5c drivers/built-in.o
                0x000000004a02219c                device_get_child
 .text.device_find_first_child
                0x000000004a0221f8       0x28 drivers/built-in.o
                0x000000004a0221f8                device_find_first_child
 .text.device_find_next_child
                0x000000004a022220       0x30 drivers/built-in.o
                0x000000004a022220                device_find_next_child
 .text.dev_get_driver_data
                0x000000004a022250        0x8 drivers/built-in.o
                0x000000004a022250                dev_get_driver_data
 .text.device_get_uclass_id
                0x000000004a022258       0x10 drivers/built-in.o
                0x000000004a022258                device_get_uclass_id
 .text.dev_get_addr_index
                0x000000004a022268       0xc4 drivers/built-in.o
                0x000000004a022268                dev_get_addr_index
 .text.dev_get_addr_name
                0x000000004a02232c       0x50 drivers/built-in.o
                0x000000004a02232c                dev_get_addr_name
 .text.dev_get_addr
                0x000000004a02237c        0x8 drivers/built-in.o
                0x000000004a02237c                dev_get_addr
 .text.device_has_active_children
                0x000000004a022384       0x3c drivers/built-in.o
                0x000000004a022384                device_has_active_children
 .text.device_is_last_sibling
                0x000000004a0223c0       0x24 drivers/built-in.o
                0x000000004a0223c0                device_is_last_sibling
 .text.lists_driver_lookup_name
                0x000000004a0223e4       0x78 drivers/built-in.o
                0x000000004a0223e4                lists_driver_lookup_name
 .text.lists_uclass_lookup
                0x000000004a02245c       0x48 drivers/built-in.o
                0x000000004a02245c                lists_uclass_lookup
 .text.lists_bind_drivers
                0x000000004a0224a4       0xb0 drivers/built-in.o
                0x000000004a0224a4                lists_bind_drivers
 .text.device_bind_driver_to_node
                0x000000004a022554       0x68 drivers/built-in.o
                0x000000004a022554                device_bind_driver_to_node
 .text.device_bind_driver
                0x000000004a0225bc        0xc drivers/built-in.o
                0x000000004a0225bc                device_bind_driver
 .text.lists_bind_fdt
                0x000000004a0225c8      0x194 drivers/built-in.o
                0x000000004a0225c8                lists_bind_fdt
 .text.dm_root  0x000000004a02275c       0x30 drivers/built-in.o
                0x000000004a02275c                dm_root
 .text.dm_get_translation_offset
                0x000000004a02278c       0x1c drivers/built-in.o
                0x000000004a02278c                dm_get_translation_offset
 .text.dm_init  0x000000004a0227a8       0x60 drivers/built-in.o
                0x000000004a0227a8                dm_init
 .text.dm_remove_devices_flags
                0x000000004a022808       0x2c drivers/built-in.o
                0x000000004a022808                dm_remove_devices_flags
 .text.dm_scan_platdata
                0x000000004a022834       0x34 drivers/built-in.o
                0x000000004a022834                dm_scan_platdata
 .text.dm_scan_fdt_node
                0x000000004a022868       0xc4 drivers/built-in.o
                0x000000004a022868                dm_scan_fdt_node
 .text.dm_scan_fdt_dev
                0x000000004a02292c       0x28 drivers/built-in.o
                0x000000004a02292c                dm_scan_fdt_dev
 .text.dm_scan_fdt
                0x000000004a022954       0x18 drivers/built-in.o
                0x000000004a022954                dm_scan_fdt
 .text.dm_scan_other
                0x000000004a02296c        0x8 drivers/built-in.o
                0x000000004a02296c                dm_scan_other
 .text.dm_init_and_scan
                0x000000004a022974       0x50 drivers/built-in.o
                0x000000004a022974                dm_init_and_scan
 .text.uclass_find
                0x000000004a0229c4       0x48 drivers/built-in.o
                0x000000004a0229c4                uclass_find
 .text.uclass_get
                0x000000004a022a0c      0x128 drivers/built-in.o
                0x000000004a022a0c                uclass_get
 .text.uclass_find_device
                0x000000004a022b34       0x78 drivers/built-in.o
                0x000000004a022b34                uclass_find_device
 .text.uclass_find_first_device
                0x000000004a022bac       0x48 drivers/built-in.o
                0x000000004a022bac                uclass_find_first_device
 .text.uclass_find_next_device
                0x000000004a022bf4       0x2c drivers/built-in.o
                0x000000004a022bf4                uclass_find_next_device
 .text.uclass_find_device_by_seq
                0x000000004a022c20       0x90 drivers/built-in.o
                0x000000004a022c20                uclass_find_device_by_seq
 .text.uclass_find_device_by_of_offset
                0x000000004a022cb0       0x78 drivers/built-in.o
                0x000000004a022cb0                uclass_find_device_by_of_offset
 .text.uclass_get_device_tail
                0x000000004a022d28       0x40 drivers/built-in.o
                0x000000004a022d28                uclass_get_device_tail
 .text.uclass_get_device
                0x000000004a022d68       0x38 drivers/built-in.o
                0x000000004a022d68                uclass_get_device
 .text.uclass_get_device_by_seq
                0x000000004a022da0       0x68 drivers/built-in.o
                0x000000004a022da0                uclass_get_device_by_seq
 .text.uclass_get_device_by_of_offset
                0x000000004a022e08       0x38 drivers/built-in.o
                0x000000004a022e08                uclass_get_device_by_of_offset
 .text.uclass_first_device
                0x000000004a022e40       0x44 drivers/built-in.o
                0x000000004a022e40                uclass_first_device
 .text.uclass_next_device
                0x000000004a022e84       0x44 drivers/built-in.o
                0x000000004a022e84                uclass_next_device
 .text.uclass_bind_device
                0x000000004a022ec8       0x70 drivers/built-in.o
                0x000000004a022ec8                uclass_bind_device
 .text.uclass_unbind_device
                0x000000004a022f38       0x4c drivers/built-in.o
                0x000000004a022f38                uclass_unbind_device
 .text.uclass_resolve_seq
                0x000000004a022f84       0xb8 drivers/built-in.o
                0x000000004a022f84                uclass_resolve_seq
 .text.uclass_pre_probe_device
                0x000000004a02303c       0x64 drivers/built-in.o
                0x000000004a02303c                uclass_pre_probe_device
 .text.uclass_post_probe_device
                0x000000004a0230a0       0x1c drivers/built-in.o
                0x000000004a0230a0                uclass_post_probe_device
 .text.uclass_pre_remove_device
                0x000000004a0230bc       0x1c drivers/built-in.o
                0x000000004a0230bc                uclass_pre_remove_device
 .text.dm_warn  0x000000004a0230d8       0x78 drivers/built-in.o
                0x000000004a0230d8                dm_warn
 .text.dm_fdt_pre_reloc
                0x000000004a023150       0x78 drivers/built-in.o
                0x000000004a023150                dm_fdt_pre_reloc
 .text.device_unbind
                0x000000004a0231c8      0x11c drivers/built-in.o
                0x000000004a0231c8                device_unbind
 .text.device_free
                0x000000004a0232e4       0x80 drivers/built-in.o
                0x000000004a0232e4                device_free
 .text.device_remove
                0x000000004a023364      0x178 drivers/built-in.o
                0x000000004a023364                device_remove
 .text.simple_bus_post_bind
                0x000000004a0234dc       0x64 drivers/built-in.o
 .text.show_devices
                0x000000004a023540      0x12c drivers/built-in.o
 .text.dm_dump_all
                0x000000004a02366c       0x54 drivers/built-in.o
                0x000000004a02366c                dm_dump_all
 .text.dm_dump_uclass
                0x000000004a0236c0      0x114 drivers/built-in.o
                0x000000004a0236c0                dm_dump_uclass
 .text.get_desc
                0x000000004a0237d4       0x54 drivers/built-in.o
 .text.blk_driver_lookup_type
                0x000000004a023828       0x58 drivers/built-in.o
                0x000000004a023828                blk_driver_lookup_type
 .text.blk_get_devnum_by_type
                0x000000004a023880       0x38 drivers/built-in.o
                0x000000004a023880                blk_get_devnum_by_type
 .text.blk_dselect_hwpart
                0x000000004a0238b8       0x48 drivers/built-in.o
                0x000000004a0238b8                blk_dselect_hwpart
 .text.blk_get_devnum_by_typename
                0x000000004a023900       0x94 drivers/built-in.o
                0x000000004a023900                blk_get_devnum_by_typename
 .text.blk_select_hwpart_devnum
                0x000000004a023994       0x54 drivers/built-in.o
                0x000000004a023994                blk_select_hwpart_devnum
 .text.keyboard_start
                0x000000004a0239e8       0x20 drivers/built-in.o
 .text.keyboard_stop
                0x000000004a023a08       0x20 drivers/built-in.o
 .text.keyboard_pre_probe
                0x000000004a023a28       0x78 drivers/built-in.o
 .text.keyboard_tstc
                0x000000004a023aa0       0x60 drivers/built-in.o
 .text.keyboard_getc
                0x000000004a023b00       0x60 drivers/built-in.o
 .text.input_tstc
                0x000000004a023b60       0x48 drivers/built-in.o
                0x000000004a023b60                input_tstc
 .text.input_getc
                0x000000004a023ba8       0x5c drivers/built-in.o
                0x000000004a023ba8                input_getc
 .text.input_init
                0x000000004a023c04       0x34 drivers/built-in.o
                0x000000004a023c04                input_init
 .text.gpio_to_device
                0x000000004a023c38       0x88 drivers/gpio/built-in.o
 .text.check_reserved
                0x000000004a023cc0       0x78 drivers/gpio/built-in.o
 .text.gpio_renumber
                0x000000004a023d38       0x90 drivers/gpio/built-in.o
 .text.gpio_pre_remove
                0x000000004a023dc8       0x5c drivers/gpio/built-in.o
 .text.gpio_post_probe
                0x000000004a023e24       0x48 drivers/gpio/built-in.o
 .text.dm_gpio_lookup_name
                0x000000004a023e6c      0x110 drivers/gpio/built-in.o
                0x000000004a023e6c                dm_gpio_lookup_name
 .text.gpio_lookup_name
                0x000000004a023f7c       0x7c drivers/gpio/built-in.o
                0x000000004a023f7c                gpio_lookup_name
 .text.gpio_xlate_offs_flags
                0x000000004a023ff8       0x3c drivers/gpio/built-in.o
                0x000000004a023ff8                gpio_xlate_offs_flags
 .text.dm_gpio_request
                0x000000004a024034       0xb8 drivers/gpio/built-in.o
                0x000000004a024034                dm_gpio_request
 .text.dm_gpio_requestf
                0x000000004a0240ec       0xa0 drivers/gpio/built-in.o
 .text.gpio_request
                0x000000004a02418c       0x34 drivers/gpio/built-in.o
                0x000000004a02418c                gpio_request
 .text._dm_gpio_free
                0x000000004a0241c0       0x84 drivers/gpio/built-in.o
                0x000000004a0241c0                _dm_gpio_free
 .text.gpio_free
                0x000000004a024244       0x28 drivers/gpio/built-in.o
                0x000000004a024244                gpio_free
 .text.gpio_direction_input
                0x000000004a02426c       0x48 drivers/gpio/built-in.o
                0x000000004a02426c                gpio_direction_input
 .text.gpio_direction_output
                0x000000004a0242b4       0x58 drivers/gpio/built-in.o
                0x000000004a0242b4                gpio_direction_output
 .text.dm_gpio_get_value
                0x000000004a02430c       0x54 drivers/gpio/built-in.o
                0x000000004a02430c                dm_gpio_get_value
 .text.dm_gpio_set_value
                0x000000004a024360       0x6c drivers/gpio/built-in.o
                0x000000004a024360                dm_gpio_set_value
 .text.dm_gpio_set_dir_flags
                0x000000004a0243cc       0xac drivers/gpio/built-in.o
                0x000000004a0243cc                dm_gpio_set_dir_flags
 .text._gpio_request_by_name_nodev
                0x000000004a024478      0x104 drivers/gpio/built-in.o
 .text.gpio_get_value
                0x000000004a02457c       0x24 drivers/gpio/built-in.o
                0x000000004a02457c                gpio_get_value
 .text.gpio_set_value
                0x000000004a0245a0       0x34 drivers/gpio/built-in.o
                0x000000004a0245a0                gpio_set_value
 .text.gpio_get_bank_info
                0x000000004a0245d4       0x2c drivers/gpio/built-in.o
                0x000000004a0245d4                gpio_get_bank_info
 .text.get_function
                0x000000004a024600       0xb4 drivers/gpio/built-in.o
                0x000000004a024600                get_function
 .text.gpio_get_function
                0x000000004a0246b4        0xc drivers/gpio/built-in.o
                0x000000004a0246b4                gpio_get_function
 .text.gpio_get_raw_function
                0x000000004a0246c0        0xc drivers/gpio/built-in.o
                0x000000004a0246c0                gpio_get_raw_function
 .text.gpio_get_status
                0x000000004a0246cc      0x130 drivers/gpio/built-in.o
                0x000000004a0246cc                gpio_get_status
 .text.gpio_request_by_name_nodev
                0x000000004a0247fc        0xc drivers/gpio/built-in.o
                0x000000004a0247fc                gpio_request_by_name_nodev
 .text.gpio_request_by_name
                0x000000004a024808       0x20 drivers/gpio/built-in.o
                0x000000004a024808                gpio_request_by_name
 .text.sunxi_gpio_set_value
                0x000000004a024828       0x50 drivers/gpio/built-in.o
 .text.sunxi_gpio_get_value
                0x000000004a024878       0x38 drivers/gpio/built-in.o
 .text.sunxi_gpio_get_function
                0x000000004a0248b0       0x40 drivers/gpio/built-in.o
 .text.sunxi_gpio_direction_output
                0x000000004a0248f0       0x6c drivers/gpio/built-in.o
 .text.sunxi_gpio_direction_input
                0x000000004a02495c       0x34 drivers/gpio/built-in.o
 .text.gpio_sunxi_probe
                0x000000004a024990       0x44 drivers/gpio/built-in.o
 .text.gpio_sunxi_bind
                0x000000004a0249d4       0xf0 drivers/gpio/built-in.o
 .text.sunxi_gpio_xlate
                0x000000004a024ac4       0x44 drivers/gpio/built-in.o
 .text.sunxi_name_to_gpio_bank
                0x000000004a024b08       0x44 drivers/gpio/built-in.o
                0x000000004a024b08                sunxi_name_to_gpio_bank
 .text.sunxi_name_to_gpio
                0x000000004a024b4c       0x2c drivers/gpio/built-in.o
                0x000000004a024b4c                sunxi_name_to_gpio
 .text.find_mmc_device
                0x000000004a024b78       0x58 drivers/mmc/built-in.o
                0x000000004a024b78                find_mmc_device
 .text.mmc_select_hwpartp
                0x000000004a024bd0       0x64 drivers/mmc/built-in.o
 .text.mmc_get_dev
                0x000000004a024c34       0x40 drivers/mmc/built-in.o
 .text.mmc_get_next_devnum
                0x000000004a024c74       0x14 drivers/mmc/built-in.o
                0x000000004a024c74                mmc_get_next_devnum
 .text.mmc_get_blk_desc
                0x000000004a024c88        0x8 drivers/mmc/built-in.o
                0x000000004a024c88                mmc_get_blk_desc
 .text.get_mmc_num
                0x000000004a024c90        0xc drivers/mmc/built-in.o
                0x000000004a024c90                get_mmc_num
 .text.mmc_do_preinit
                0x000000004a024c9c       0x44 drivers/mmc/built-in.o
                0x000000004a024c9c                mmc_do_preinit
 .text.mmc_list_init
                0x000000004a024ce0       0x1c drivers/mmc/built-in.o
                0x000000004a024ce0                mmc_list_init
 .text.mmc_list_add
                0x000000004a024cfc       0x20 drivers/mmc/built-in.o
                0x000000004a024cfc                mmc_list_add
 .text.print_mmc_devices
                0x000000004a024d1c       0xd8 drivers/mmc/built-in.o
                0x000000004a024d1c                print_mmc_devices
 .text.mmc_create
                0x000000004a024df4       0xd0 drivers/mmc/built-in.o
                0x000000004a024df4                mmc_create
 .text.mmc_set_ios
                0x000000004a024ec4       0x18 drivers/mmc/built-in.o
 .text.mmc_set_capacity
                0x000000004a024edc       0x84 drivers/mmc/built-in.o
 .text.board_mmc_getwp
                0x000000004a024f60        0x8 drivers/mmc/built-in.o
                0x000000004a024f60                board_mmc_getwp
 .text.mmc_getwp
                0x000000004a024f68       0x48 drivers/mmc/built-in.o
                0x000000004a024f68                mmc_getwp
 .text.board_mmc_getcd
                0x000000004a024fb0        0x8 drivers/mmc/built-in.o
                0x000000004a024fb0                board_mmc_getcd
 .text.mmc_send_cmd
                0x000000004a024fb8       0x10 drivers/mmc/built-in.o
                0x000000004a024fb8                mmc_send_cmd
 .text.mmc_send_ext_csd
                0x000000004a024fc8       0x40 drivers/mmc/built-in.o
 .text.mmc_go_idle
                0x000000004a025008       0x50 drivers/mmc/built-in.o
 .text.mmc_send_op_cond_iter
                0x000000004a025058       0x74 drivers/mmc/built-in.o
 .text.mmc_send_status
                0x000000004a0250cc       0xd4 drivers/mmc/built-in.o
                0x000000004a0250cc                mmc_send_status
 .text.mmc_set_blocklen
                0x000000004a0251a0       0x3c drivers/mmc/built-in.o
                0x000000004a0251a0                mmc_set_blocklen
 .text.mmc_bread
                0x000000004a0251dc      0x18c drivers/mmc/built-in.o
                0x000000004a0251dc                mmc_bread
 .text.mmc_switch
                0x000000004a025368       0x6c drivers/mmc/built-in.o
                0x000000004a025368                mmc_switch
 .text.mmc_switch_part
                0x000000004a0253d4       0x7c drivers/mmc/built-in.o
                0x000000004a0253d4                mmc_switch_part
 .text.mmc_hwpart_config
                0x000000004a025450      0x3e8 drivers/mmc/built-in.o
                0x000000004a025450                mmc_hwpart_config
 .text.mmc_getcd
                0x000000004a025838       0x48 drivers/mmc/built-in.o
                0x000000004a025838                mmc_getcd
 .text.mmc_set_clock
                0x000000004a025880       0x24 drivers/mmc/built-in.o
                0x000000004a025880                mmc_set_clock
 .text.mmc_startup
                0x000000004a0258a4      0xb90 drivers/mmc/built-in.o
 .text.board_mmc_power_init
                0x000000004a026434        0x4 drivers/mmc/built-in.o
                0x000000004a026434                board_mmc_power_init
 .text.mmc_start_init
                0x000000004a026438      0x244 drivers/mmc/built-in.o
                0x000000004a026438                mmc_start_init
 .text.mmc_init
                0x000000004a02667c      0x128 drivers/mmc/built-in.o
                0x000000004a02667c                mmc_init
 .text.mmc_set_dsr
                0x000000004a0267a4       0x10 drivers/mmc/built-in.o
                0x000000004a0267a4                mmc_set_dsr
 .text.cpu_mmc_init
                0x000000004a0267b4        0x8 drivers/mmc/built-in.o
                0x000000004a0267b4                cpu_mmc_init
 .text.mmc_initialize
                0x000000004a0267bc       0x60 drivers/mmc/built-in.o
                0x000000004a0267bc                mmc_initialize
 .text.mmc_berase
                0x000000004a02681c      0x1d8 drivers/mmc/built-in.o
                0x000000004a02681c                mmc_berase
 .text.mmc_bwrite
                0x000000004a0269f4      0x1a8 drivers/mmc/built-in.o
                0x000000004a0269f4                mmc_bwrite
 .text.sunxi_mmc_core_init
                0x000000004a026b9c       0x30 drivers/mmc/built-in.o
 .text.sunxi_mmc_getcd_gpio
                0x000000004a026bcc       0x40 drivers/mmc/built-in.o
 .text.sunxi_mmc_getcd
                0x000000004a026c0c       0x34 drivers/mmc/built-in.o
 .text.mmc_update_clk.isra.1
                0x000000004a026c40       0x7c drivers/mmc/built-in.o
 .text.mmc_rint_wait.isra.3
                0x000000004a026cbc       0x70 drivers/mmc/built-in.o
 .text.sunxi_mmc_send_cmd
                0x000000004a026d2c      0x324 drivers/mmc/built-in.o
 .text.mmc_set_mod_clk
                0x000000004a027050      0x108 drivers/mmc/built-in.o
 .text.sunxi_mmc_set_ios
                0x000000004a027158       0xf4 drivers/mmc/built-in.o
 .text.sunxi_mmc_init
                0x000000004a02724c      0x224 drivers/mmc/built-in.o
                0x000000004a02724c                sunxi_mmc_init
 .text.sun8i_emac_eth_stop
                0x000000004a027470       0x44 drivers/net/built-in.o
 .text.sun8i_eth_free_pkt
                0x000000004a0274b4       0x58 drivers/net/built-in.o
 .text.sun8i_emac_eth_recv
                0x000000004a02750c       0xb0 drivers/net/built-in.o
 .text.sun8i_emac_eth_send
                0x000000004a0275bc       0xf8 drivers/net/built-in.o
 .text.sun8i_mdio_reset
                0x000000004a0276b4       0xb0 drivers/net/built-in.o
 .text.sun8i_mdio_write
                0x000000004a027764       0xa0 drivers/net/built-in.o
 .text.sun8i_mdio_read
                0x000000004a027804       0x90 drivers/net/built-in.o
 .text._sun8i_write_hwaddr.isra.0
                0x000000004a027894       0x48 drivers/net/built-in.o
 .text.sun8i_eth_write_hwaddr
                0x000000004a0278dc       0x38 drivers/net/built-in.o
 .text.sun8i_emac_eth_start
                0x000000004a027914      0x238 drivers/net/built-in.o
 .text.sun8i_emac_eth_probe
                0x000000004a027b4c      0x1b4 drivers/net/built-in.o
 .text.sun8i_emac_eth_ofdata_to_platdata
                0x000000004a027d00      0x2e4 drivers/net/built-in.o
 .text.genphy_shutdown
                0x000000004a027fe4        0x8 drivers/net/phy/built-in.o
                0x000000004a027fe4                genphy_shutdown
 .text.genphy_restart_aneg
                0x000000004a027fec       0x64 drivers/net/phy/built-in.o
                0x000000004a027fec                genphy_restart_aneg
 .text.genphy_config_aneg
                0x000000004a028050      0x214 drivers/net/phy/built-in.o
                0x000000004a028050                genphy_config_aneg
 .text.genphy_config
                0x000000004a028264       0xec drivers/net/phy/built-in.o
                0x000000004a028264                genphy_config
 .text.genphy_update_link
                0x000000004a028350      0x14c drivers/net/phy/built-in.o
                0x000000004a028350                genphy_update_link
 .text.genphy_parse_link
                0x000000004a02849c      0x1c0 drivers/net/phy/built-in.o
                0x000000004a02849c                genphy_parse_link
 .text.genphy_startup
                0x000000004a02865c       0x34 drivers/net/phy/built-in.o
                0x000000004a02865c                genphy_startup
 .text.phy_init
                0x000000004a028690        0x8 drivers/net/phy/built-in.o
                0x000000004a028690                phy_init
 .text.get_phy_id
                0x000000004a028698       0x80 drivers/net/phy/built-in.o
                0x000000004a028698                get_phy_id
 .text.get_phy_device_by_mask
                0x000000004a028718      0x2d0 drivers/net/phy/built-in.o
 .text.phy_reset
                0x000000004a0289e8       0xc8 drivers/net/phy/built-in.o
                0x000000004a0289e8                phy_reset
 .text.phy_find_by_mask
                0x000000004a028ab0       0x4c drivers/net/phy/built-in.o
                0x000000004a028ab0                phy_find_by_mask
 .text.phy_connect_dev
                0x000000004a028afc       0x58 drivers/net/phy/built-in.o
                0x000000004a028afc                phy_connect_dev
 .text.phy_connect
                0x000000004a028b54       0x68 drivers/net/phy/built-in.o
                0x000000004a028b54                phy_connect
 .text.board_phy_config
                0x000000004a028bbc       0x18 drivers/net/phy/built-in.o
                0x000000004a028bbc                board_phy_config
 .text.phy_config
                0x000000004a028bd4        0x4 drivers/net/phy/built-in.o
                0x000000004a028bd4                phy_config
 .text.phy_shutdown
                0x000000004a028bd8       0x2c drivers/net/phy/built-in.o
                0x000000004a028bd8                phy_shutdown
 .text.phy_get_interface_by_name
                0x000000004a028c04       0x58 drivers/net/phy/built-in.o
                0x000000004a028c04                phy_get_interface_by_name
 .text._serial_putc
                0x000000004a028c5c       0x58 drivers/serial/built-in.o
 .text._serial_getc
                0x000000004a028cb4       0x40 drivers/serial/built-in.o
 .text._serial_tstc
                0x000000004a028cf4       0x20 drivers/serial/built-in.o
 .text.serial_stub_putc
                0x000000004a028d14        0x8 drivers/serial/built-in.o
 .text.serial_stub_getc
                0x000000004a028d1c        0x8 drivers/serial/built-in.o
                0x000000004a028d1c                serial_stub_getc
 .text.serial_stub_tstc
                0x000000004a028d24        0x8 drivers/serial/built-in.o
                0x000000004a028d24                serial_stub_tstc
 .text.serial_pre_remove
                0x000000004a028d2c       0x28 drivers/serial/built-in.o
 .text.serial_post_probe
                0x000000004a028d54       0xc4 drivers/serial/built-in.o
 .text.serial_stub_puts
                0x000000004a028e18       0x38 drivers/serial/built-in.o
                0x000000004a028e18                serial_stub_puts
 .text.serial_init
                0x000000004a028e50      0x158 drivers/serial/built-in.o
                0x000000004a028e50                serial_init
 .text.serial_initialize
                0x000000004a028fa8        0x4 drivers/serial/built-in.o
                0x000000004a028fa8                serial_initialize
 .text.serial_putc
                0x000000004a028fac       0x18 drivers/serial/built-in.o
                0x000000004a028fac                serial_putc
 .text.serial_puts
                0x000000004a028fc4       0x44 drivers/serial/built-in.o
                0x000000004a028fc4                serial_puts
 .text.serial_getc
                0x000000004a029008       0x18 drivers/serial/built-in.o
                0x000000004a029008                serial_getc
 .text.serial_tstc
                0x000000004a029020       0x18 drivers/serial/built-in.o
                0x000000004a029020                serial_tstc
 .text.serial_setbrg
                0x000000004a029038       0x2c drivers/serial/built-in.o
                0x000000004a029038                serial_setbrg
 .text.on_baudrate
                0x000000004a029064      0x110 drivers/serial/built-in.o
 .text.serial_stdio_init
                0x000000004a029174        0x4 drivers/serial/built-in.o
                0x000000004a029174                serial_stdio_init
 .text.ns16550_serial_ofdata_to_platdata
                0x000000004a029178       0xd0 drivers/serial/built-in.o
                0x000000004a029178                ns16550_serial_ofdata_to_platdata
 .text.ns16550_writeb.isra.0
                0x000000004a029248       0x24 drivers/serial/built-in.o
 .text.NS16550_setbrg
                0x000000004a02926c       0x54 drivers/serial/built-in.o
 .text.ns16550_serial_setbrg
                0x000000004a0292c0       0x3c drivers/serial/built-in.o
 .text.ns16550_readb.isra.1
                0x000000004a0292fc       0x24 drivers/serial/built-in.o
 .text.ns16550_serial_pending
                0x000000004a029320       0x44 drivers/serial/built-in.o
 .text.ns16550_serial_putc
                0x000000004a029364       0x50 drivers/serial/built-in.o
 .text.ns16550_serial_getc
                0x000000004a0293b4       0x3c drivers/serial/built-in.o
 .text.NS16550_init
                0x000000004a0293f0       0x70 drivers/serial/built-in.o
                0x000000004a0293f0                NS16550_init
 .text.ns16550_serial_probe
                0x000000004a029460       0x40 drivers/serial/built-in.o
                0x000000004a029460                ns16550_serial_probe
 .text.usb_child_post_bind
                0x000000004a0294a0       0x9c drivers/usb/host/built-in.o
                0x000000004a0294a0                usb_child_post_bind
 .text.remove_inactive_children.isra.0
                0x000000004a02953c       0x80 drivers/usb/host/built-in.o
 .text.usb_disable_asynch
                0x000000004a0295bc       0x1c drivers/usb/host/built-in.o
                0x000000004a0295bc                usb_disable_asynch
 .text.submit_int_msg
                0x000000004a0295d8       0x38 drivers/usb/host/built-in.o
                0x000000004a0295d8                submit_int_msg
 .text.submit_control_msg
                0x000000004a029610       0x9c drivers/usb/host/built-in.o
                0x000000004a029610                submit_control_msg
 .text.submit_bulk_msg
                0x000000004a0296ac       0x34 drivers/usb/host/built-in.o
                0x000000004a0296ac                submit_bulk_msg
 .text.create_int_queue
                0x000000004a0296e0       0x3c drivers/usb/host/built-in.o
                0x000000004a0296e0                create_int_queue
 .text.poll_int_queue
                0x000000004a02971c       0x2c drivers/usb/host/built-in.o
                0x000000004a02971c                poll_int_queue
 .text.destroy_int_queue
                0x000000004a029748       0x2c drivers/usb/host/built-in.o
                0x000000004a029748                destroy_int_queue
 .text.usb_alloc_device
                0x000000004a029774       0x24 drivers/usb/host/built-in.o
                0x000000004a029774                usb_alloc_device
 .text.usb_reset_root_port
                0x000000004a029798       0x24 drivers/usb/host/built-in.o
                0x000000004a029798                usb_reset_root_port
 .text.usb_stop
                0x000000004a0297bc       0x94 drivers/usb/host/built-in.o
                0x000000004a0297bc                usb_stop
 .text.usb_match_device
                0x000000004a029850       0xc4 drivers/usb/host/built-in.o
                0x000000004a029850                usb_match_device
 .text.usb_match_one_id_intf
                0x000000004a029914       0x80 drivers/usb/host/built-in.o
                0x000000004a029914                usb_match_one_id_intf
 .text.usb_match_one_id
                0x000000004a029994       0x3c drivers/usb/host/built-in.o
                0x000000004a029994                usb_match_one_id
 .text.usb_get_bus
                0x000000004a0299d0       0x3c drivers/usb/host/built-in.o
                0x000000004a0299d0                usb_get_bus
 .text.usb_scan_device
                0x000000004a029a0c      0x27c drivers/usb/host/built-in.o
                0x000000004a029a0c                usb_scan_device
 .text.usb_scan_bus.isra.1
                0x000000004a029c88       0x80 drivers/usb/host/built-in.o
 .text.usb_init
                0x000000004a029d08      0x1cc drivers/usb/host/built-in.o
                0x000000004a029d08                usb_init
 .text.usb_child_pre_probe
                0x000000004a029ed4       0x84 drivers/usb/host/built-in.o
                0x000000004a029ed4                usb_child_pre_probe
 .text.ep_rev   0x000000004a029f58       0x38 drivers/usb/host/built-in.o
 .text.urb_free_priv
                0x000000004a029f90       0x3c drivers/usb/host/built-in.o
 .text.ohci_get_ohci_dev
                0x000000004a029fcc       0x9c drivers/usb/host/built-in.o
 .text.td_fill.isra.2
                0x000000004a02a068      0x104 drivers/usb/host/built-in.o
 .text.ohci_destroy_int_queue
                0x000000004a02a16c       0x54 drivers/usb/host/built-in.o
 .text.hc_reset
                0x000000004a02a1c0       0xf4 drivers/usb/host/built-in.o
 .text.hc_interrupt
                0x000000004a02a2b4      0x5b4 drivers/usb/host/built-in.o
 .text.ohci_poll_int_queue
                0x000000004a02a868       0x60 drivers/usb/host/built-in.o
 .text.sohci_submit_job
                0x000000004a02a8c8      0x7f4 drivers/usb/host/built-in.o
                0x000000004a02a8c8                sohci_submit_job
 .text.ohci_create_int_queue
                0x000000004a02b0bc      0x158 drivers/usb/host/built-in.o
 .text.submit_common_msg
                0x000000004a02b214      0x194 drivers/usb/host/built-in.o
 .text.ohci_submit_int_msg
                0x000000004a02b3a8       0x5c drivers/usb/host/built-in.o
 .text.ohci_submit_bulk_msg
                0x000000004a02b404       0x50 drivers/usb/host/built-in.o
 .text.ohci_submit_control_msg
                0x000000004a02b454      0x55c drivers/usb/host/built-in.o
 .text.ohci_register
                0x000000004a02b9b0      0x194 drivers/usb/host/built-in.o
                0x000000004a02b9b0                ohci_register
 .text.ohci_deregister
                0x000000004a02bb44       0x40 drivers/usb/host/built-in.o
                0x000000004a02bb44                ohci_deregister
 .text.ohci_usb_remove
                0x000000004a02bb84       0x78 drivers/usb/host/built-in.o
 .text.ohci_usb_probe
                0x000000004a02bbfc       0xc8 drivers/usb/host/built-in.o
 .text.ehci_get_port_speed
                0x000000004a02bcc4        0x8 drivers/usb/host/built-in.o
 .text.ehci_set_usbmode
                0x000000004a02bccc       0x18 drivers/usb/host/built-in.o
 .text.ehci_get_portsc_register
                0x000000004a02bce4       0x18 drivers/usb/host/built-in.o
 .text.ehci_powerup_fixup
                0x000000004a02bcfc       0x30 drivers/usb/host/built-in.o
 .text.handshake
                0x000000004a02bd2c       0x70 drivers/usb/host/built-in.o
 .text.ehci_td_buffer
                0x000000004a02bd9c       0x94 drivers/usb/host/built-in.o
 .text.ehci_shutdown
                0x000000004a02be30       0xb4 drivers/usb/host/built-in.o
 .text._ehci_poll_int_queue
                0x000000004a02bee4       0xe0 drivers/usb/host/built-in.o
 .text.ehci_poll_int_queue
                0x000000004a02bfc4        0xc drivers/usb/host/built-in.o
 .text.disable_periodic.isra.1
                0x000000004a02bfd0       0x4c drivers/usb/host/built-in.o
 .text.enable_periodic.isra.2
                0x000000004a02c01c       0x54 drivers/usb/host/built-in.o
 .text.ehci_get_ctrl.isra.3
                0x000000004a02c070       0x14 drivers/usb/host/built-in.o
 .text._ehci_destroy_int_queue
                0x000000004a02c084       0xf8 drivers/usb/host/built-in.o
 .text.ehci_destroy_int_queue
                0x000000004a02c17c        0xc drivers/usb/host/built-in.o
 .text.ehci_update_endpt2_dev_n_port.isra.4
                0x000000004a02c188       0x60 drivers/usb/host/built-in.o
 .text.ehci_submit_async
                0x000000004a02c1e8      0x594 drivers/usb/host/built-in.o
 .text.ehci_submit_bulk_msg
                0x000000004a02c77c       0x2c drivers/usb/host/built-in.o
 .text._ehci_create_int_queue.isra.5
                0x000000004a02c7a8      0x3b0 drivers/usb/host/built-in.o
 .text.ehci_create_int_queue
                0x000000004a02cb58       0x18 drivers/usb/host/built-in.o
 .text.ehci_submit_int_msg
                0x000000004a02cb70       0xd8 drivers/usb/host/built-in.o
 .text.ehci_submit_control_msg
                0x000000004a02cc48      0x568 drivers/usb/host/built-in.o
 .text.ehci_register
                0x000000004a02d1b0      0x328 drivers/usb/host/built-in.o
                0x000000004a02d1b0                ehci_register
 .text.ehci_deregister
                0x000000004a02d4d8       0x28 drivers/usb/host/built-in.o
                0x000000004a02d4d8                ehci_deregister
 .text.ehci_usb_remove
                0x000000004a02d500       0x64 drivers/usb/host/built-in.o
 .text.ehci_usb_probe
                0x000000004a02d564       0xc4 drivers/usb/host/built-in.o
 .text.fs_probe_unsupported
                0x000000004a02d628       0x20 fs/built-in.o
 .text.fs_exists_unsupported
                0x000000004a02d648        0x8 fs/built-in.o
 .text.fs_size_unsupported
                0x000000004a02d650        0x8 fs/built-in.o
 .text.fs_write_unsupported
                0x000000004a02d658        0x8 fs/built-in.o
 .text.fs_close_unsupported
                0x000000004a02d660        0x4 fs/built-in.o
 .text.fs_uuid_unsupported
                0x000000004a02d664        0x8 fs/built-in.o
 .text.fs_get_info
                0x000000004a02d66c       0x34 fs/built-in.o
 .text.fs_close
                0x000000004a02d6a0       0x30 fs/built-in.o
 .text.fs_read_unsupported
                0x000000004a02d6d0        0x8 fs/built-in.o
 .text.fs_ls_unsupported
                0x000000004a02d6d8        0x8 fs/built-in.o
 .text.fs_set_blk_dev
                0x000000004a02d6e0       0xb0 fs/built-in.o
                0x000000004a02d6e0                fs_set_blk_dev
 .text.fs_ls    0x000000004a02d790       0x44 fs/built-in.o
                0x000000004a02d790                fs_ls
 .text.fs_exists
                0x000000004a02d7d4       0x40 fs/built-in.o
                0x000000004a02d7d4                fs_exists
 .text.fs_size  0x000000004a02d814       0x48 fs/built-in.o
                0x000000004a02d814                fs_size
 .text.fs_read  0x000000004a02d85c       0x8c fs/built-in.o
                0x000000004a02d85c                fs_read
 .text.fs_write
                0x000000004a02d8e8       0x88 fs/built-in.o
                0x000000004a02d8e8                fs_write
 .text.do_size  0x000000004a02d970       0x6c fs/built-in.o
                0x000000004a02d970                do_size
 .text.do_load  0x000000004a02d9dc      0x204 fs/built-in.o
                0x000000004a02d9dc                do_load
 .text.do_ls    0x000000004a02dbe0       0x84 fs/built-in.o
                0x000000004a02dbe0                do_ls
 .text.file_exists
                0x000000004a02dc64       0x3c fs/built-in.o
                0x000000004a02dc64                file_exists
 .text.do_save  0x000000004a02dca0      0x14c fs/built-in.o
                0x000000004a02dca0                do_save
 .text.do_fs_type
                0x000000004a02ddec       0x8c fs/built-in.o
                0x000000004a02ddec                do_fs_type
 .text.get_fs   0x000000004a02de78        0xc fs/built-in.o
                0x000000004a02de78                get_fs
 .text.ext4fs_free_node
                0x000000004a02de84       0x24 fs/built-in.o
                0x000000004a02de84                ext4fs_free_node
 .text.ext4fs_read_file
                0x000000004a02dea8      0x2a0 fs/built-in.o
                0x000000004a02dea8                ext4fs_read_file
 .text.ext4fs_ls
                0x000000004a02e148       0x80 fs/built-in.o
                0x000000004a02e148                ext4fs_ls
 .text.ext4fs_exists
                0x000000004a02e1c8       0x20 fs/built-in.o
                0x000000004a02e1c8                ext4fs_exists
 .text.ext4fs_size
                0x000000004a02e1e8        0x4 fs/built-in.o
                0x000000004a02e1e8                ext4fs_size
 .text.ext4fs_read
                0x000000004a02e1ec       0x30 fs/built-in.o
                0x000000004a02e1ec                ext4fs_read
 .text.ext4fs_probe
                0x000000004a02e21c       0x3c fs/built-in.o
                0x000000004a02e21c                ext4fs_probe
 .text.ext4_read_file
                0x000000004a02e258       0x7c fs/built-in.o
                0x000000004a02e258                ext4_read_file
 .text.ext4fs_uuid
                0x000000004a02e2d4       0x38 fs/built-in.o
                0x000000004a02e2d4                ext4fs_uuid
 .text.ext4fs_bg_get_inode_table_id
                0x000000004a02e30c       0x20 fs/built-in.o
                0x000000004a02e30c                ext4fs_bg_get_inode_table_id
 .text.ext4fs_read_inode
                0x000000004a02e32c      0x108 fs/built-in.o
                0x000000004a02e32c                ext4fs_read_inode
 .text.read_allocated_block
                0x000000004a02e434      0x848 fs/built-in.o
                0x000000004a02e434                read_allocated_block
 .text.ext4fs_reinit_global
                0x000000004a02ec7c       0x90 fs/built-in.o
                0x000000004a02ec7c                ext4fs_reinit_global
 .text.ext4fs_close
                0x000000004a02ed0c       0x4c fs/built-in.o
                0x000000004a02ed0c                ext4fs_close
 .text.ext4fs_iterate_dir
                0x000000004a02ed58      0x290 fs/built-in.o
                0x000000004a02ed58                ext4fs_iterate_dir
 .text.ext4fs_find_file1
                0x000000004a02efe8      0x298 fs/built-in.o
 .text.ext4fs_find_file
                0x000000004a02f280       0x74 fs/built-in.o
                0x000000004a02f280                ext4fs_find_file
 .text.ext4fs_open
                0x000000004a02f2f4       0xa0 fs/built-in.o
                0x000000004a02f2f4                ext4fs_open
 .text.ext4fs_mount
                0x000000004a02f394       0xec fs/built-in.o
                0x000000004a02f394                ext4fs_mount
 .text.ext4fs_set_blk_dev
                0x000000004a02f480       0x70 fs/built-in.o
                0x000000004a02f480                ext4fs_set_blk_dev
 .text.ext4fs_devread
                0x000000004a02f4f0      0x270 fs/built-in.o
                0x000000004a02f4f0                ext4fs_devread
 .text.ext4_read_superblock
                0x000000004a02f760       0x48 fs/built-in.o
                0x000000004a02f760                ext4_read_superblock
 .text.downcase
                0x000000004a02f7a8       0x2c fs/built-in.o
 .text.disk_read
                0x000000004a02f7d4       0x60 fs/built-in.o
 .text.dirdelim
                0x000000004a02f834       0x34 fs/built-in.o
 .text.mkcksum  0x000000004a02f868       0x54 fs/built-in.o
 .text.check_overflow
                0x000000004a02f8bc       0x50 fs/built-in.o
 .text.disk_write
                0x000000004a02f90c       0x8c fs/built-in.o
 .text.flush_dirty_fat_buffer
                0x000000004a02f998       0xb8 fs/built-in.o
 .text.set_fatent_value
                0x000000004a02fa50      0x1e4 fs/built-in.o
 .text.get_fatent
                0x000000004a02fc34      0x188 fs/built-in.o
 .text.find_empty_cluster
                0x000000004a02fdbc       0x3c fs/built-in.o
 .text.get_cluster
                0x000000004a02fdf8      0x184 fs/built-in.o
 .text.get_name
                0x000000004a02ff7c       0xd0 fs/built-in.o
 .text.set_cluster
                0x000000004a03004c      0x180 fs/built-in.o
 .text.read_bootsectandvi
                0x000000004a0301cc      0x12c fs/built-in.o
 .text.set_name
                0x000000004a0302f8      0x178 fs/built-in.o
 .text.slot2str
                0x000000004a030470       0xac fs/built-in.o
 .text.get_vfatname
                0x000000004a03051c      0x1e8 fs/built-in.o
 .text.flush_dir_table.constprop.10
                0x000000004a030704       0xf4 fs/built-in.o
 .text.do_fat_write
                0x000000004a0307f8      0xc30 fs/built-in.o
 .text.fat_set_blk_dev
                0x000000004a031428       0xcc fs/built-in.o
                0x000000004a031428                fat_set_blk_dev
 .text.do_fat_read_at
                0x000000004a0314f4      0xb58 fs/built-in.o
                0x000000004a0314f4                do_fat_read_at
 .text.do_fat_read
                0x000000004a03204c       0x1c fs/built-in.o
                0x000000004a03204c                do_fat_read
 .text.file_fat_detectfs
                0x000000004a032068      0x140 fs/built-in.o
                0x000000004a032068                file_fat_detectfs
 .text.file_fat_ls
                0x000000004a0321a8       0x24 fs/built-in.o
                0x000000004a0321a8                file_fat_ls
 .text.fat_exists
                0x000000004a0321cc       0x34 fs/built-in.o
                0x000000004a0321cc                fat_exists
 .text.fat_size
                0x000000004a032200       0x1c fs/built-in.o
                0x000000004a032200                fat_size
 .text.file_fat_read_at
                0x000000004a03221c       0x68 fs/built-in.o
                0x000000004a03221c                file_fat_read_at
 .text.fat_read_file
                0x000000004a032284       0x48 fs/built-in.o
                0x000000004a032284                fat_read_file
 .text.fat_close
                0x000000004a0322cc        0x4 fs/built-in.o
                0x000000004a0322cc                fat_close
 .text.file_fat_write
                0x000000004a0322d0       0x74 fs/built-in.o
                0x000000004a0322d0                file_fat_write
 .text.efi_return_handle
                0x000000004a032344        0xc lib/built-in.o
                0x000000004a032344                efi_return_handle
 .text.efi_load_pe
                0x000000004a032350      0x2b0 lib/built-in.o
                0x000000004a032350                efi_load_pe
 .text.efi_search.isra.0.part.1
                0x000000004a032600       0x5c lib/built-in.o
 .text.efi_save_gd
                0x000000004a03265c        0xc lib/built-in.o
                0x000000004a03265c                efi_save_gd
 .text.efi_restore_gd
                0x000000004a032668       0x24 lib/built-in.o
                0x000000004a032668                efi_restore_gd
 .text.efi_set_mem
                0x000000004a03268c       0x28 lib/built-in.o
 .text.efi_copy_mem
                0x000000004a0326b4       0x24 lib/built-in.o
 .text.efi_exit
                0x000000004a0326d8       0x48 lib/built-in.o
 .text.efi_allocate_pages_ext
                0x000000004a032720       0x30 lib/built-in.o
                0x000000004a032720                efi_allocate_pages_ext
 .text.efi_free_pages_ext
                0x000000004a032750       0x28 lib/built-in.o
                0x000000004a032750                efi_free_pages_ext
 .text.efi_get_memory_map_ext
                0x000000004a032778       0x30 lib/built-in.o
                0x000000004a032778                efi_get_memory_map_ext
 .text.efi_calculate_crc32
                0x000000004a0327a8       0x44 lib/built-in.o
 .text.efi_uninstall_multiple_protocol_interfaces
                0x000000004a0327ec       0x24 lib/built-in.o
 .text.efi_install_multiple_protocol_interfaces
                0x000000004a032810       0x24 lib/built-in.o
 .text.efi_locate_protocol
                0x000000004a032834       0x64 lib/built-in.o
 .text.efi_locate_handle_buffer
                0x000000004a032898       0x24 lib/built-in.o
 .text.efi_protocols_per_handle
                0x000000004a0328bc       0x24 lib/built-in.o
 .text.efi_open_protocol_information
                0x000000004a0328e0       0x24 lib/built-in.o
 .text.efi_open_protocol
                0x000000004a032904       0xe8 lib/built-in.o
 .text.efi_handle_protocol
                0x000000004a0329ec       0x10 lib/built-in.o
 .text.efi_disconnect_controller
                0x000000004a0329fc       0x24 lib/built-in.o
 .text.efi_connect_controller
                0x000000004a032a20       0x24 lib/built-in.o
 .text.efi_set_watchdog_timer
                0x000000004a032a44       0x20 lib/built-in.o
 .text.efi_stall
                0x000000004a032a64       0x2c lib/built-in.o
 .text.efi_get_next_monotonic_count
                0x000000004a032a90       0x38 lib/built-in.o
 .text.efi_exit_boot_services
                0x000000004a032ac8       0x28 lib/built-in.o
 .text.efi_unload_image
                0x000000004a032af0       0x68 lib/built-in.o
 .text.efi_start_image
                0x000000004a032b58       0x94 lib/built-in.o
 .text.efi_load_image
                0x000000004a032bec       0xd4 lib/built-in.o
 .text.efi_locate_device_path
                0x000000004a032cc0       0x24 lib/built-in.o
 .text.efi_locate_handle
                0x000000004a032ce4       0xf8 lib/built-in.o
 .text.efi_reinstall_protocol_interface
                0x000000004a032ddc       0x20 lib/built-in.o
 .text.efi_install_protocol_interface
                0x000000004a032dfc       0x24 lib/built-in.o
 .text.efi_check_event
                0x000000004a032e20       0x24 lib/built-in.o
 .text.efi_close_event
                0x000000004a032e44       0x2c lib/built-in.o
 .text.efi_signal_event
                0x000000004a032e70       0x20 lib/built-in.o
 .text.efi_set_timer
                0x000000004a032e90       0xbc lib/built-in.o
 .text.efi_create_event
                0x000000004a032f4c       0x58 lib/built-in.o
 .text.efi_free_pool_ext
                0x000000004a032fa4       0x28 lib/built-in.o
 .text.efi_allocate_pool_ext
                0x000000004a032fcc       0x30 lib/built-in.o
 .text.efi_restore_tpl
                0x000000004a032ffc       0x1c lib/built-in.o
 .text.efi_raise_tpl
                0x000000004a033018       0x20 lib/built-in.o
 .text.efi_close_protocol
                0x000000004a033038       0x24 lib/built-in.o
 .text.efi_uninstall_protocol_interface
                0x000000004a03305c       0x24 lib/built-in.o
 .text.efi_register_protocol_notify
                0x000000004a033080       0x24 lib/built-in.o
 .text.efi_exit_func
                0x000000004a0330a4        0xc lib/built-in.o
                0x000000004a0330a4                efi_exit_func
 .text.efi_timer_check
                0x000000004a0330b0       0x58 lib/built-in.o
                0x000000004a0330b0                efi_timer_check
 .text.efi_wait_for_event
                0x000000004a033108       0x38 lib/built-in.o
 .text.efi_install_configuration_table
                0x000000004a033140       0xcc lib/built-in.o
                0x000000004a033140                efi_install_configuration_table
 .text.efi_install_configuration_table_ext
                0x000000004a03320c       0x28 lib/built-in.o
 .text.efi_get_time_boottime
                0x000000004a033234        0x8 lib/built-in.o
 .text.efi_reset_system_boottime
                0x000000004a03323c       0x34 lib/built-in.o
 .text.efi_reset_system_init
                0x000000004a033270        0x4 lib/built-in.o
                0x000000004a033270                efi_reset_system_init
 .text.efi_get_time_init
                0x000000004a033274        0x4 lib/built-in.o
                0x000000004a033274                efi_get_time_init
 .text.efi_runtime_relocate
                0x000000004a033278       0xec lib/built-in.o
                0x000000004a033278                efi_runtime_relocate
 .text.efi_set_virtual_address_map
                0x000000004a033364      0x138 lib/built-in.o
 .text.efi_cin_lock_std_in
                0x000000004a03349c       0x18 lib/built-in.o
 .text.efi_cin_set_mode
                0x000000004a0334b4       0x18 lib/built-in.o
 .text.efi_cin_get_mode
                0x000000004a0334cc       0x4c lib/built-in.o
 .text.efi_cout_set_attribute
                0x000000004a033518       0x18 lib/built-in.o
 .text.efi_cout_test_string
                0x000000004a033530       0x18 lib/built-in.o
 .text.efi_cout_reset
                0x000000004a033548       0x18 lib/built-in.o
 .text.efi_cin_reset
                0x000000004a033560       0x18 lib/built-in.o
 .text.efi_cout_enable_cursor
                0x000000004a033578       0x40 lib/built-in.o
 .text.efi_cout_set_cursor_position
                0x000000004a0335b8       0x48 lib/built-in.o
 .text.efi_cout_clear_screen
                0x000000004a033600       0x24 lib/built-in.o
 .text.efi_cout_output_string
                0x000000004a033624      0x110 lib/built-in.o
 .text.efi_cout_set_mode
                0x000000004a033734       0x48 lib/built-in.o
 .text.efi_cin_read_key_stroke
                0x000000004a03377c      0x158 lib/built-in.o
 .text.efi_cout_query_mode
                0x000000004a0338d4      0x22c lib/built-in.o
 .text.efi_mem_cmp
                0x000000004a033b00       0x24 lib/built-in.o
 .text.efi_find_free_memory
                0x000000004a033b24       0x68 lib/built-in.o
 .text.efi_add_memory_map
                0x000000004a033b8c      0x214 lib/built-in.o
                0x000000004a033b8c                efi_add_memory_map
 .text.efi_allocate_pages
                0x000000004a033da0       0xa0 lib/built-in.o
                0x000000004a033da0                efi_allocate_pages
 .text.efi_alloc
                0x000000004a033e40       0x34 lib/built-in.o
                0x000000004a033e40                efi_alloc
 .text.efi_free_pages
                0x000000004a033e74       0x38 lib/built-in.o
                0x000000004a033e74                efi_free_pages
 .text.efi_allocate_pool
                0x000000004a033eac       0x60 lib/built-in.o
                0x000000004a033eac                efi_allocate_pool
 .text.efi_free_pool
                0x000000004a033f0c        0xc lib/built-in.o
                0x000000004a033f0c                efi_free_pool
 .text.efi_get_memory_map
                0x000000004a033f18       0xc4 lib/built-in.o
                0x000000004a033f18                efi_get_memory_map
 .text.efi_add_known_memory
                0x000000004a033fdc       0x2c lib/built-in.o
                0x000000004a033fdc                efi_add_known_memory
 .text.efi_memory_init
                0x000000004a034008       0x70 lib/built-in.o
                0x000000004a034008                efi_memory_init
 .text.efi_disk_open_block
                0x000000004a034078       0x10 lib/built-in.o
 .text.efi_disk_open_dp
                0x000000004a034088       0x10 lib/built-in.o
 .text.efi_disk_flush_blocks
                0x000000004a034098       0x18 lib/built-in.o
 .text.efi_disk_reset
                0x000000004a0340b0       0x18 lib/built-in.o
 .text.efi_disk_add_dev.part.0
                0x000000004a0340c8      0x150 lib/built-in.o
 .text.efi_disk_read_blocks
                0x000000004a034218       0x94 lib/built-in.o
 .text.efi_disk_write_blocks
                0x000000004a0342ac       0x94 lib/built-in.o
 .text.efi_disk_register
                0x000000004a034340      0x16c lib/built-in.o
                0x000000004a034340                efi_disk_register
 .text.efi_net_push
                0x000000004a0344ac       0x10 lib/built-in.o
 .text.efi_net_open_dp
                0x000000004a0344bc       0x10 lib/built-in.o
 .text.efi_net_open_pxe
                0x000000004a0344cc       0x10 lib/built-in.o
 .text.efi_net_get_status
                0x000000004a0344dc       0x44 lib/built-in.o
 .text.efi_net_nvdata
                0x000000004a034520       0x1c lib/built-in.o
 .text.efi_net_mcastiptomac
                0x000000004a03453c       0x1c lib/built-in.o
 .text.efi_net_station_address
                0x000000004a034558       0x1c lib/built-in.o
 .text.efi_net_receive_filters
                0x000000004a034574       0x18 lib/built-in.o
 .text.efi_net_shutdown
                0x000000004a03458c       0x18 lib/built-in.o
 .text.efi_net_stop
                0x000000004a0345a4        0x4 lib/built-in.o
 .text.efi_net_start
                0x000000004a0345a8        0x4 lib/built-in.o
 .text.efi_net_reset
                0x000000004a0345ac       0x18 lib/built-in.o
 .text.efi_net_initialize
                0x000000004a0345c4       0x1c lib/built-in.o
 .text.efi_net_receive
                0x000000004a0345e0       0x9c lib/built-in.o
 .text.efi_net_transmit
                0x000000004a03467c       0x58 lib/built-in.o
 .text.efi_net_statistics
                0x000000004a0346d4       0x1c lib/built-in.o
 .text.efi_net_set_dhcp_ack
                0x000000004a0346f0       0x54 lib/built-in.o
                0x000000004a0346f0                efi_net_set_dhcp_ack
 .text.efi_net_register
                0x000000004a034744      0x21c lib/built-in.o
                0x000000004a034744                efi_net_register
 .text.efi_smbios_register
                0x000000004a034960       0x48 lib/built-in.o
                0x000000004a034960                efi_smbios_register
 .text.zcalloc  0x000000004a0349a8        0x8 lib/built-in.o
                0x000000004a0349a8                zcalloc
 .text.zcfree   0x000000004a0349b0        0x8 lib/built-in.o
                0x000000004a0349b0                zcfree
 .text.inflate_fast
                0x000000004a0349b8      0x508 lib/built-in.o
                0x000000004a0349b8                inflate_fast
 .text.inflate_table
                0x000000004a034ec0      0x450 lib/built-in.o
                0x000000004a034ec0                inflate_table
 .text.inflateReset
                0x000000004a035310       0x60 lib/built-in.o
                0x000000004a035310                inflateReset
 .text.inflateInit2_
                0x000000004a035370      0x104 lib/built-in.o
                0x000000004a035370                inflateInit2_
 .text.inflateEnd
                0x000000004a035474       0x64 lib/built-in.o
                0x000000004a035474                inflateEnd
 .text.adler32  0x000000004a0354d8      0x2f0 lib/built-in.o
                0x000000004a0354d8                adler32
 .text.inflate  0x000000004a0357c8     0x1380 lib/built-in.o
                0x000000004a0357c8                inflate
 .text.fdt_check_header
                0x000000004a036b48       0x74 lib/built-in.o
                0x000000004a036b48                fdt_check_header
 .text.fdt_offset_ptr
                0x000000004a036bbc       0x74 lib/built-in.o
                0x000000004a036bbc                fdt_offset_ptr
 .text.fdt_next_tag
                0x000000004a036c30       0xe0 lib/built-in.o
                0x000000004a036c30                fdt_next_tag
 .text._fdt_check_node_offset
                0x000000004a036d10       0x40 lib/built-in.o
                0x000000004a036d10                _fdt_check_node_offset
 .text._fdt_check_prop_offset
                0x000000004a036d50       0x40 lib/built-in.o
                0x000000004a036d50                _fdt_check_prop_offset
 .text.fdt_next_node
                0x000000004a036d90       0xb0 lib/built-in.o
                0x000000004a036d90                fdt_next_node
 .text.fdt_first_subnode
                0x000000004a036e40       0x34 lib/built-in.o
                0x000000004a036e40                fdt_first_subnode
 .text.fdt_next_subnode
                0x000000004a036e74       0x5c lib/built-in.o
                0x000000004a036e74                fdt_next_subnode
 .text._fdt_find_string
                0x000000004a036ed0       0x70 lib/built-in.o
                0x000000004a036ed0                _fdt_find_string
 .text.fdt_move
                0x000000004a036f40       0x5c lib/built-in.o
                0x000000004a036f40                fdt_move
 .text.fdt_path_next_separator
                0x000000004a036f9c       0x68 lib/built-in.o
 .text._nextprop
                0x000000004a037004       0x64 lib/built-in.o
 .text.fdt_string
                0x000000004a037068       0x14 lib/built-in.o
                0x000000004a037068                fdt_string
 .text.fdt_get_mem_rsv
                0x000000004a03707c       0x60 lib/built-in.o
                0x000000004a03707c                fdt_get_mem_rsv
 .text.fdt_num_mem_rsv
                0x000000004a0370dc       0x28 lib/built-in.o
                0x000000004a0370dc                fdt_num_mem_rsv
 .text.fdt_subnode_offset_namelen
                0x000000004a037104       0xec lib/built-in.o
                0x000000004a037104                fdt_subnode_offset_namelen
 .text.fdt_subnode_offset
                0x000000004a0371f0       0x44 lib/built-in.o
                0x000000004a0371f0                fdt_subnode_offset
 .text.fdt_get_name
                0x000000004a037234       0x7c lib/built-in.o
                0x000000004a037234                fdt_get_name
 .text.fdt_first_property_offset
                0x000000004a0372b0       0x38 lib/built-in.o
                0x000000004a0372b0                fdt_first_property_offset
 .text.fdt_next_property_offset
                0x000000004a0372e8       0x38 lib/built-in.o
                0x000000004a0372e8                fdt_next_property_offset
 .text.fdt_get_property_by_offset
                0x000000004a037320       0x64 lib/built-in.o
                0x000000004a037320                fdt_get_property_by_offset
 .text.fdt_get_property_namelen
                0x000000004a037384       0xd4 lib/built-in.o
                0x000000004a037384                fdt_get_property_namelen
 .text.fdt_get_property
                0x000000004a037458       0x4c lib/built-in.o
                0x000000004a037458                fdt_get_property
 .text.fdt_getprop_namelen
                0x000000004a0374a4       0x20 lib/built-in.o
                0x000000004a0374a4                fdt_getprop_namelen
 .text.fdt_getprop_by_offset
                0x000000004a0374c4       0x54 lib/built-in.o
                0x000000004a0374c4                fdt_getprop_by_offset
 .text.fdt_getprop
                0x000000004a037518       0x4c lib/built-in.o
                0x000000004a037518                fdt_getprop
 .text.fdt_get_phandle
                0x000000004a037564       0x78 lib/built-in.o
                0x000000004a037564                fdt_get_phandle
 .text.fdt_get_alias_namelen
                0x000000004a0375dc       0x64 lib/built-in.o
                0x000000004a0375dc                fdt_get_alias_namelen
 .text.fdt_path_offset_namelen
                0x000000004a037640       0xfc lib/built-in.o
                0x000000004a037640                fdt_path_offset_namelen
 .text.fdt_path_offset
                0x000000004a03773c       0x34 lib/built-in.o
                0x000000004a03773c                fdt_path_offset
 .text.fdt_get_alias
                0x000000004a037770       0x34 lib/built-in.o
                0x000000004a037770                fdt_get_alias
 .text.fdt_supernode_atdepth_offset
                0x000000004a0377a4       0xc0 lib/built-in.o
                0x000000004a0377a4                fdt_supernode_atdepth_offset
 .text.fdt_node_depth
                0x000000004a037864       0x34 lib/built-in.o
                0x000000004a037864                fdt_node_depth
 .text.fdt_parent_offset
                0x000000004a037898       0x44 lib/built-in.o
                0x000000004a037898                fdt_parent_offset
 .text.fdt_node_offset_by_phandle
                0x000000004a0378dc       0x84 lib/built-in.o
                0x000000004a0378dc                fdt_node_offset_by_phandle
 .text.fdt_stringlist_search
                0x000000004a037960       0xc4 lib/built-in.o
                0x000000004a037960                fdt_stringlist_search
 .text.fdt_stringlist_get
                0x000000004a037a24       0xb4 lib/built-in.o
                0x000000004a037a24                fdt_stringlist_get
 .text._fdt_blocks_misordered
                0x000000004a037ad8       0x60 lib/built-in.o
 .text._fdt_splice
                0x000000004a037b38       0x98 lib/built-in.o
 .text._fdt_splice_mem_rsv
                0x000000004a037bd0       0x6c lib/built-in.o
 .text._fdt_splice_struct
                0x000000004a037c3c       0x60 lib/built-in.o
 .text._fdt_packblocks
                0x000000004a037c9c       0xb0 lib/built-in.o
 .text._fdt_find_add_string
                0x000000004a037d4c       0xc0 lib/built-in.o
 .text._fdt_add_property
                0x000000004a037e0c       0xb0 lib/built-in.o
 .text._fdt_rw_check_header
                0x000000004a037ebc       0x6c lib/built-in.o
 .text.fdt_add_mem_rsv
                0x000000004a037f28       0x7c lib/built-in.o
                0x000000004a037f28                fdt_add_mem_rsv
 .text.fdt_del_mem_rsv
                0x000000004a037fa4       0x70 lib/built-in.o
                0x000000004a037fa4                fdt_del_mem_rsv
 .text.fdt_setprop
                0x000000004a038014       0xf4 lib/built-in.o
                0x000000004a038014                fdt_setprop
 .text.fdt_delprop
                0x000000004a038108       0x74 lib/built-in.o
                0x000000004a038108                fdt_delprop
 .text.fdt_add_subnode_namelen
                0x000000004a03817c      0x11c lib/built-in.o
                0x000000004a03817c                fdt_add_subnode_namelen
 .text.fdt_add_subnode
                0x000000004a038298       0x44 lib/built-in.o
                0x000000004a038298                fdt_add_subnode
 .text.fdt_del_node
                0x000000004a0382dc       0x60 lib/built-in.o
                0x000000004a0382dc                fdt_del_node
 .text.fdt_open_into
                0x000000004a03833c      0x1a4 lib/built-in.o
                0x000000004a03833c                fdt_open_into
 .text.fdt_strerror
                0x000000004a0384e0       0x4c lib/built-in.o
                0x000000004a0384e0                fdt_strerror
 .text._fdt_node_end_offset
                0x000000004a03852c       0x4c lib/built-in.o
                0x000000004a03852c                _fdt_node_end_offset
 .text.fdt_address_cells
                0x000000004a038578       0x58 lib/built-in.o
                0x000000004a038578                fdt_address_cells
 .text.fdt_size_cells
                0x000000004a0385d0       0x54 lib/built-in.o
                0x000000004a0385d0                fdt_size_cells
 .text.crc16_ccitt
                0x000000004a038624       0x38 lib/built-in.o
                0x000000004a038624                crc16_ccitt
 .text.fdtdec_get_int
                0x000000004a03865c       0x40 lib/built-in.o
                0x000000004a03865c                fdtdec_get_int
 .text.gzalloc  0x000000004a03869c       0x10 lib/built-in.o
                0x000000004a03869c                gzalloc
 .text.gzfree   0x000000004a0386ac        0x8 lib/built-in.o
                0x000000004a0386ac                gzfree
 .text.zunzip   0x000000004a0386b4      0x120 lib/built-in.o
                0x000000004a0386b4                zunzip
 .text.gunzip   0x000000004a0387d4       0xc4 lib/built-in.o
                0x000000004a0387d4                gunzip
 .text.smbios_write_type127
                0x000000004a038898       0x68 lib/built-in.o
 .text.smbios_write_type32
                0x000000004a038900       0x68 lib/built-in.o
 .text.smbios_string_table_len
                0x000000004a038968       0x44 lib/built-in.o
 .text.smbios_add_string
                0x000000004a0389ac       0x7c lib/built-in.o
 .text.smbios_write_type3
                0x000000004a038a28       0xa0 lib/built-in.o
 .text.smbios_write_type2
                0x000000004a038ac8       0xb0 lib/built-in.o
 .text.smbios_write_type0
                0x000000004a038b78      0x104 lib/built-in.o
 .text.smbios_write_type1
                0x000000004a038c7c       0xd4 lib/built-in.o
 .text.smbios_write_type4
                0x000000004a038d50       0xe8 lib/built-in.o
 .text.write_smbios_table
                0x000000004a038e38      0x13c lib/built-in.o
                0x000000004a038e38                write_smbios_table
 .text.initcall_run_list
                0x000000004a038f74       0x80 lib/built-in.o
                0x000000004a038f74                initcall_run_list
 .text.lmb_add_region
                0x000000004a038ff4      0x16c lib/built-in.o
 .text.lmb_init
                0x000000004a039160       0x18 lib/built-in.o
                0x000000004a039160                lmb_init
 .text.lmb_add  0x000000004a039178        0x4 lib/built-in.o
                0x000000004a039178                lmb_add
 .text.lmb_free
                0x000000004a03917c       0xd0 lib/built-in.o
                0x000000004a03917c                lmb_free
 .text.lmb_reserve
                0x000000004a03924c        0x8 lib/built-in.o
                0x000000004a03924c                lmb_reserve
 .text.__lmb_alloc_base
                0x000000004a039254      0x108 lib/built-in.o
                0x000000004a039254                __lmb_alloc_base
 .text.lmb_alloc_base
                0x000000004a03935c       0x4c lib/built-in.o
                0x000000004a03935c                lmb_alloc_base
 .text.lmb_alloc
                0x000000004a0393a8        0x8 lib/built-in.o
                0x000000004a0393a8                lmb_alloc
 .text.board_lmb_reserve
                0x000000004a0393b0        0x4 lib/built-in.o
                0x000000004a0393b0                board_lmb_reserve
 .text.MD5Transform
                0x000000004a0393b4      0xa00 lib/built-in.o
 .text.MD5Update
                0x000000004a039db4      0x100 lib/built-in.o
 .text.MD5Final
                0x000000004a039eb4       0xc4 lib/built-in.o
 .text.md5_wd   0x000000004a039f78       0x6c lib/built-in.o
                0x000000004a039f78                md5_wd
 .text.string_to_ip
                0x000000004a039fe4       0xa4 lib/built-in.o
                0x000000004a039fe4                string_to_ip
 .text.qsort    0x000000004a03a088       0xf0 lib/built-in.o
                0x000000004a03a088                qsort
 .text.strcmp_compar
                0x000000004a03a178        0xc lib/built-in.o
                0x000000004a03a178                strcmp_compar
 .text.merge    0x000000004a03a184       0x8c lib/built-in.o
 .text.list_sort
                0x000000004a03a210      0x1a4 lib/built-in.o
                0x000000004a03a210                list_sort
 .text.sha1_process
                0x000000004a03a3b4     0x1558 lib/built-in.o
 .text.sha1_update.part.0
                0x000000004a03b90c      0x108 lib/built-in.o
 .text.sha1_starts
                0x000000004a03ba14       0x44 lib/built-in.o
                0x000000004a03ba14                sha1_starts
 .text.sha1_update
                0x000000004a03ba58        0xc lib/built-in.o
                0x000000004a03ba58                sha1_update
 .text.sha1_finish
                0x000000004a03ba64      0x180 lib/built-in.o
                0x000000004a03ba64                sha1_finish
 .text.sha1_csum_wd
                0x000000004a03bbe4       0x48 lib/built-in.o
                0x000000004a03bbe4                sha1_csum_wd
 .text.sha256_process
                0x000000004a03bc2c     0x1fa8 lib/built-in.o
 .text.sha256_update.part.0
                0x000000004a03dbd4      0x104 lib/built-in.o
 .text.sha256_starts
                0x000000004a03dcd8       0x68 lib/built-in.o
                0x000000004a03dcd8                sha256_starts
 .text.sha256_update
                0x000000004a03dd40        0xc lib/built-in.o
                0x000000004a03dd40                sha256_update
 .text.sha256_finish
                0x000000004a03dd4c      0x1c0 lib/built-in.o
                0x000000004a03dd4c                sha256_finish
 .text.sha256_csum_wd
                0x000000004a03df0c       0x48 lib/built-in.o
                0x000000004a03df0c                sha256_csum_wd
 .text.get_prop_check_min_len
                0x000000004a03df54       0x50 lib/built-in.o
 .text.fdtdec_get_is_enabled
                0x000000004a03dfa4       0x40 lib/built-in.o
                0x000000004a03dfa4                fdtdec_get_is_enabled
 .text.fdtdec_get_alias_seq
                0x000000004a03dfe4      0x128 lib/built-in.o
                0x000000004a03dfe4                fdtdec_get_alias_seq
 .text.fdtdec_get_chosen_prop
                0x000000004a03e10c       0x44 lib/built-in.o
                0x000000004a03e10c                fdtdec_get_chosen_prop
 .text.fdtdec_get_chosen_node
                0x000000004a03e150       0x3c lib/built-in.o
                0x000000004a03e150                fdtdec_get_chosen_node
 .text.fdtdec_prepare_fdt
                0x000000004a03e18c       0x44 lib/built-in.o
                0x000000004a03e18c                fdtdec_prepare_fdt
 .text.fdtdec_lookup_phandle
                0x000000004a03e1d0       0x44 lib/built-in.o
                0x000000004a03e1d0                fdtdec_lookup_phandle
 .text.fdtdec_get_int_array
                0x000000004a03e214       0x5c lib/built-in.o
                0x000000004a03e214                fdtdec_get_int_array
 .text.fdtdec_get_bool
                0x000000004a03e270       0x20 lib/built-in.o
                0x000000004a03e270                fdtdec_get_bool
 .text.fdtdec_parse_phandle_with_args
                0x000000004a03e290      0x150 lib/built-in.o
                0x000000004a03e290                fdtdec_parse_phandle_with_args
 .text.fdtdec_get_config_int
                0x000000004a03e3e0       0x60 lib/built-in.o
                0x000000004a03e3e0                fdtdec_get_config_int
 .text.fdtdec_get_config_string
                0x000000004a03e440       0x4c lib/built-in.o
                0x000000004a03e440                fdtdec_get_config_string
 .text.fdtdec_setup
                0x000000004a03e48c       0x40 lib/built-in.o
                0x000000004a03e48c                fdtdec_setup
 .text.cmpkey   0x000000004a03e4cc       0x14 lib/built-in.o
 .text._hdelete.isra.0
                0x000000004a03e4e0       0x64 lib/built-in.o
 .text.drop_var_from_set.part.1
                0x000000004a03e544       0x6c lib/built-in.o
 .text.match_string
                0x000000004a03e5b0       0xd4 lib/built-in.o
 .text.match_entry
                0x000000004a03e684       0xd4 lib/built-in.o
 .text.hcreate_r
                0x000000004a03e758       0x94 lib/built-in.o
                0x000000004a03e758                hcreate_r
 .text.hdestroy_r
                0x000000004a03e7ec       0x8c lib/built-in.o
                0x000000004a03e7ec                hdestroy_r
 .text.hmatch_r
                0x000000004a03e878       0xb8 lib/built-in.o
                0x000000004a03e878                hmatch_r
 .text.hsearch_r
                0x000000004a03e930      0x40c lib/built-in.o
                0x000000004a03e930                hsearch_r
 .text.hdelete_r
                0x000000004a03ed3c       0xf0 lib/built-in.o
                0x000000004a03ed3c                hdelete_r
 .text.hexport_r
                0x000000004a03ee2c      0x28c lib/built-in.o
                0x000000004a03ee2c                hexport_r
 .text.himport_r
                0x000000004a03f0b8      0x39c lib/built-in.o
                0x000000004a03f0b8                himport_r
 .text.hwalk_r  0x000000004a03f454       0x70 lib/built-in.o
                0x000000004a03f454                hwalk_r
 .text.display_options
                0x000000004a03f4c4       0x28 lib/built-in.o
                0x000000004a03f4c4                display_options
 .text.print_size
                0x000000004a03f4ec       0xfc lib/built-in.o
                0x000000004a03f4ec                print_size
 .text.print_buffer
                0x000000004a03f5e8      0x1e8 lib/built-in.o
                0x000000004a03f5e8                print_buffer
 .text.crc32_no_comp
                0x000000004a03f7d0       0xdc lib/built-in.o
                0x000000004a03f7d0                crc32_no_comp
 .text.crc32    0x000000004a03f8ac       0x1c lib/built-in.o
                0x000000004a03f8ac                crc32
 .text.crc32_wd
                0x000000004a03f8c8        0x4 lib/built-in.o
                0x000000004a03f8c8                crc32_wd
 .text.crc32_wd_buf
                0x000000004a03f8cc       0x3c lib/built-in.o
                0x000000004a03f8cc                crc32_wd_buf
 .text.hang     0x000000004a03f908       0x20 lib/built-in.o
                0x000000004a03f908                hang
 .text.skip_spaces
                0x000000004a03f928       0x20 lib/built-in.o
                0x000000004a03f928                skip_spaces
 .text.strim    0x000000004a03f948       0x5c lib/built-in.o
                0x000000004a03f948                strim
 .text.emit     0x000000004a03f9a4       0x2c lib/built-in.o
 .text.store_char_in_data
                0x000000004a03f9d0       0x30 lib/built-in.o
 .text.get_escape_char
                0x000000004a03fa00       0x84 lib/built-in.o
 .text.relocate
                0x000000004a03fa84       0x58 lib/built-in.o
 .text.match    0x000000004a03fadc      0x3f8 lib/built-in.o
 .text.loop_greedy
                0x000000004a03fed4       0xb4 lib/built-in.o
 .text.loop_non_greedy
                0x000000004a03ff88       0xa0 lib/built-in.o
 .text.quantifier
                0x000000004a040028       0xc0 lib/built-in.o
 .text.fixup_branch
                0x000000004a0400e8       0x54 lib/built-in.o
 .text.compile  0x000000004a04013c      0x394 lib/built-in.o
 .text.slre_compile
                0x000000004a0404d0       0xe4 lib/built-in.o
                0x000000004a0404d0                slre_compile
 .text.slre_match
                0x000000004a0405b4       0x98 lib/built-in.o
                0x000000004a0405b4                slre_match
 .text.strncasecmp
                0x000000004a04064c       0x78 lib/built-in.o
                0x000000004a04064c                strncasecmp
 .text.strcasecmp
                0x000000004a0406c4        0x8 lib/built-in.o
                0x000000004a0406c4                strcasecmp
 .text.strcpy   0x000000004a0406cc       0x18 lib/built-in.o
                0x000000004a0406cc                strcpy
 .text.strncpy  0x000000004a0406e4       0x20 lib/built-in.o
                0x000000004a0406e4                strncpy
 .text.strcat   0x000000004a040704       0x2c lib/built-in.o
                0x000000004a040704                strcat
 .text.strncat  0x000000004a040730       0x40 lib/built-in.o
                0x000000004a040730                strncat
 .text.strcmp   0x000000004a040770       0x28 lib/built-in.o
                0x000000004a040770                strcmp
 .text.strncmp  0x000000004a040798       0x38 lib/built-in.o
                0x000000004a040798                strncmp
 .text.strchr   0x000000004a0407d0       0x28 lib/built-in.o
                0x000000004a0407d0                strchr
 .text.strlen   0x000000004a0407f8       0x1c lib/built-in.o
                0x000000004a0407f8                strlen
 .text.strrchr  0x000000004a040814       0x40 lib/built-in.o
                0x000000004a040814                strrchr
 .text.strnlen  0x000000004a040854       0x28 lib/built-in.o
                0x000000004a040854                strnlen
 .text.strdup   0x000000004a04087c       0x4c lib/built-in.o
                0x000000004a04087c                strdup
 .text.memset   0x000000004a0408c8       0x70 lib/built-in.o
                0x000000004a0408c8                memset
 .text.memcpy   0x000000004a040938       0x70 lib/built-in.o
                0x000000004a040938                memcpy
 .text.strlcpy  0x000000004a0409a8       0x58 lib/built-in.o
                0x000000004a0409a8                strlcpy
 .text.memmove  0x000000004a040a00       0x44 lib/built-in.o
                0x000000004a040a00                memmove
 .text.memcmp   0x000000004a040a44       0x30 lib/built-in.o
                0x000000004a040a44                memcmp
 .text.memscan  0x000000004a040a74       0x24 lib/built-in.o
                0x000000004a040a74                memscan
 .text.strstr   0x000000004a040a98       0x68 lib/built-in.o
                0x000000004a040a98                strstr
 .text.memchr   0x000000004a040b00       0x30 lib/built-in.o
                0x000000004a040b00                memchr
 .text.timer_init
                0x000000004a040b30        0x8 lib/built-in.o
                0x000000004a040b30                timer_init
 .text.get_timer
                0x000000004a040b38       0x3c lib/built-in.o
                0x000000004a040b38                get_timer
 .text.timer_get_us
                0x000000004a040b74       0x38 lib/built-in.o
                0x000000004a040b74                timer_get_us
 .text.__udelay
                0x000000004a040bac       0x4c lib/built-in.o
                0x000000004a040bac                __udelay
 .text.udelay   0x000000004a040bf8       0x44 lib/built-in.o
                0x000000004a040bf8                udelay
 .text.uuid_str_valid
                0x000000004a040c3c       0x88 lib/built-in.o
                0x000000004a040c3c                uuid_str_valid
 .text.uuid_str_to_bin
                0x000000004a040cc4      0x190 lib/built-in.o
                0x000000004a040cc4                uuid_str_to_bin
 .text.uuid_bin_to_str
                0x000000004a040e54       0xc8 lib/built-in.o
                0x000000004a040e54                uuid_bin_to_str
 .text.put_dec_trunc
                0x000000004a040f1c       0xe0 lib/built-in.o
 .text.put_dec  0x000000004a040ffc       0xd0 lib/built-in.o
 .text.number   0x000000004a0410cc      0x2cc lib/built-in.o
 .text.string   0x000000004a041398       0xdc lib/built-in.o
 .text.vsnprintf_internal
                0x000000004a041474      0x8b4 lib/built-in.o
 .text.vscnprintf
                0x000000004a041d28       0x78 lib/built-in.o
                0x000000004a041d28                vscnprintf
 .text.snprintf
                0x000000004a041da0       0x7c lib/built-in.o
                0x000000004a041da0                snprintf
 .text.vsprintf
                0x000000004a041e1c       0x44 lib/built-in.o
                0x000000004a041e1c                vsprintf
 .text.sprintf  0x000000004a041e60       0x74 lib/built-in.o
                0x000000004a041e60                sprintf
 .text.printf   0x000000004a041ed4       0xb0 lib/built-in.o
                0x000000004a041ed4                printf
 .text.vprintf  0x000000004a041f84       0x54 lib/built-in.o
                0x000000004a041f84                vprintf
 .text.simple_itoa
                0x000000004a041fd8       0x40 lib/built-in.o
                0x000000004a041fd8                simple_itoa
 .text.panic_finish
                0x000000004a042018       0x34 lib/built-in.o
 .text.panic_str
                0x000000004a04204c       0x10 lib/built-in.o
                0x000000004a04204c                panic_str
 .text.panic    0x000000004a04205c       0x74 lib/built-in.o
                0x000000004a04205c                panic
 .text.simple_strtoul
                0x000000004a0420d0       0xc8 lib/built-in.o
                0x000000004a0420d0                simple_strtoul
 .text.strict_strtoul
                0x000000004a042198       0x88 lib/built-in.o
                0x000000004a042198                strict_strtoul
 .text.simple_strtol
                0x000000004a042220       0x2c lib/built-in.o
                0x000000004a042220                simple_strtol
 .text.ustrtoul
                0x000000004a04224c       0x80 lib/built-in.o
                0x000000004a04224c                ustrtoul
 .text.simple_strtoull
                0x000000004a0422cc       0xc8 lib/built-in.o
                0x000000004a0422cc                simple_strtoull
 .text.ustrtoull
                0x000000004a042394       0x80 lib/built-in.o
                0x000000004a042394                ustrtoull
 .text.trailing_strtoln
                0x000000004a042414       0x78 lib/built-in.o
                0x000000004a042414                trailing_strtoln
 .text.trailing_strtol
                0x000000004a04248c        0x8 lib/built-in.o
                0x000000004a04248c                trailing_strtol
 .text.compute_ip_checksum
                0x000000004a042494       0x80 net/built-in.o
                0x000000004a042494                compute_ip_checksum
 .text.ip_checksum_ok
                0x000000004a042514       0x1c net/built-in.o
                0x000000004a042514                ip_checksum_ok
 .text.arp_init
                0x000000004a042530       0x3c net/built-in.o
                0x000000004a042530                arp_init
 .text.arp_raw_request
                0x000000004a04256c       0xe0 net/built-in.o
                0x000000004a04256c                arp_raw_request
 .text.arp_request
                0x000000004a04264c       0x84 net/built-in.o
                0x000000004a04264c                arp_request
 .text.arp_timeout_check
                0x000000004a0426d0       0x90 net/built-in.o
                0x000000004a0426d0                arp_timeout_check
 .text.arp_receive
                0x000000004a042760      0x20c net/built-in.o
                0x000000004a042760                arp_receive
 .text.dhcp_extended
                0x000000004a04296c      0x268 net/built-in.o
 .text.dhcp_process_options
                0x000000004a042bd4      0x228 net/built-in.o
 .text.dhcp_packet_process_options
                0x000000004a042dfc       0x88 net/built-in.o
 .text.dhcp_handler
                0x000000004a042e84      0x3c4 net/built-in.o
 .text.bootp_reset
                0x000000004a043248       0x3c net/built-in.o
                0x000000004a043248                bootp_reset
 .text.bootp_request
                0x000000004a043284      0x270 net/built-in.o
                0x000000004a043284                bootp_request
 .text.bootp_timeout_handler
                0x000000004a0434f4       0x70 net/built-in.o
 .text.dhcp_request
                0x000000004a043564        0x4 net/built-in.o
                0x000000004a043564                dhcp_request
 .text.eth_get_uclass_priv
                0x000000004a043568       0x24 net/built-in.o
 .text.eth_pre_remove
                0x000000004a04358c       0x40 net/built-in.o
 .text.eth_write_hwaddr
                0x000000004a0435cc       0xdc net/built-in.o
 .text.on_ethaddr
                0x000000004a0436a8       0x90 net/built-in.o
 .text.eth_post_probe
                0x000000004a043738      0x1a0 net/built-in.o
 .text.eth_post_bind
                0x000000004a0438d8       0x48 net/built-in.o
 .text.eth_set_current_to_next
                0x000000004a043920       0x48 net/built-in.o
                0x000000004a043920                eth_set_current_to_next
 .text.eth_get_dev
                0x000000004a043968       0x40 net/built-in.o
                0x000000004a043968                eth_get_dev
 .text.eth_set_dev
                0x000000004a0439a8       0x44 net/built-in.o
                0x000000004a0439a8                eth_set_dev
 .text.eth_pre_unbind
                0x000000004a0439ec       0x38 net/built-in.o
 .text.eth_get_dev_by_name
                0x000000004a043a24       0xf8 net/built-in.o
                0x000000004a043a24                eth_get_dev_by_name
 .text.eth_get_ethaddr
                0x000000004a043b1c       0x2c net/built-in.o
                0x000000004a043b1c                eth_get_ethaddr
 .text.eth_halt_state_only
                0x000000004a043b48       0x2c net/built-in.o
                0x000000004a043b48                eth_halt_state_only
 .text.eth_get_dev_index
                0x000000004a043b74       0x28 net/built-in.o
                0x000000004a043b74                eth_get_dev_index
 .text.eth_init
                0x000000004a043b9c       0xf8 net/built-in.o
                0x000000004a043b9c                eth_init
 .text.eth_halt
                0x000000004a043c94       0x48 net/built-in.o
                0x000000004a043c94                eth_halt
 .text.eth_send
                0x000000004a043cdc       0x5c net/built-in.o
                0x000000004a043cdc                eth_send
 .text.eth_rx   0x000000004a043d38       0xc4 net/built-in.o
                0x000000004a043d38                eth_rx
 .text.eth_initialize
                0x000000004a043dfc      0x118 net/built-in.o
                0x000000004a043dfc                eth_initialize
 .text.eth_parse_enetaddr
                0x000000004a043f14       0x74 net/built-in.o
                0x000000004a043f14                eth_parse_enetaddr
 .text.eth_getenv_enetaddr
                0x000000004a043f88       0x6c net/built-in.o
                0x000000004a043f88                eth_getenv_enetaddr
 .text.eth_setenv_enetaddr
                0x000000004a043ff4       0x54 net/built-in.o
                0x000000004a043ff4                eth_setenv_enetaddr
 .text.eth_getenv_enetaddr_by_index
                0x000000004a044048       0x50 net/built-in.o
                0x000000004a044048                eth_getenv_enetaddr_by_index
 .text.eth_setenv_enetaddr_by_index
                0x000000004a044098       0x50 net/built-in.o
                0x000000004a044098                eth_setenv_enetaddr_by_index
 .text.eth_common_init
                0x000000004a0440e8       0x1c net/built-in.o
                0x000000004a0440e8                eth_common_init
 .text.eth_mac_skip
                0x000000004a044104       0x44 net/built-in.o
                0x000000004a044104                eth_mac_skip
 .text.eth_get_name
                0x000000004a044148       0x2c net/built-in.o
                0x000000004a044148                eth_get_name
 .text.eth_current_changed
                0x000000004a044174       0x90 net/built-in.o
                0x000000004a044174                eth_current_changed
 .text.eth_try_another
                0x000000004a044204       0x80 net/built-in.o
                0x000000004a044204                eth_try_another
 .text.eth_set_current
                0x000000004a044284       0x8c net/built-in.o
                0x000000004a044284                eth_set_current
 .text.net_clear_handlers
                0x000000004a044310       0x24 net/built-in.o
 .text.start_again_timeout_handler
                0x000000004a044334       0x10 net/built-in.o
 .text.dummy_handler
                0x000000004a044344        0x4 net/built-in.o
 .text.on_ipaddr
                0x000000004a044348       0x30 net/built-in.o
 .text.on_gatewayip
                0x000000004a044378       0x30 net/built-in.o
 .text.on_netmask
                0x000000004a0443a8       0x30 net/built-in.o
 .text.on_serverip
                0x000000004a0443d8       0x30 net/built-in.o
 .text.net_init_loop
                0x000000004a044408       0x34 net/built-in.o
 .text.net_auto_load
                0x000000004a04443c       0x6c net/built-in.o
                0x000000004a04443c                net_auto_load
 .text.net_init
                0x000000004a0444a8       0x70 net/built-in.o
                0x000000004a0444a8                net_init
 .text.net_start_again
                0x000000004a044518      0x14c net/built-in.o
                0x000000004a044518                net_start_again
 .text.net_loop
                0x000000004a044664      0x320 net/built-in.o
                0x000000004a044664                net_loop
 .text.net_set_udp_handler
                0x000000004a044984       0x18 net/built-in.o
                0x000000004a044984                net_set_udp_handler
 .text.net_get_arp_handler
                0x000000004a04499c        0xc net/built-in.o
                0x000000004a04499c                net_get_arp_handler
 .text.net_set_timeout_handler
                0x000000004a0449a8       0x54 net/built-in.o
                0x000000004a0449a8                net_set_timeout_handler
 .text.net_process_received_packet
                0x000000004a0449fc      0x2a0 net/built-in.o
                0x000000004a0449fc                net_process_received_packet
 .text.net_eth_hdr_size
                0x000000004a044c9c       0x3c net/built-in.o
                0x000000004a044c9c                net_eth_hdr_size
 .text.net_set_ether
                0x000000004a044cd8       0xb0 net/built-in.o
                0x000000004a044cd8                net_set_ether
 .text.net_update_ether
                0x000000004a044d88       0x90 net/built-in.o
                0x000000004a044d88                net_update_ether
 .text.net_set_ip_header
                0x000000004a044e18       0x8c net/built-in.o
                0x000000004a044e18                net_set_ip_header
 .text.net_set_udp_header
                0x000000004a044ea4       0x94 net/built-in.o
                0x000000004a044ea4                net_set_udp_header
 .text.net_send_udp_packet
                0x000000004a044f38      0x110 net/built-in.o
                0x000000004a044f38                net_send_udp_packet
 .text.copy_filename
                0x000000004a045048       0x44 net/built-in.o
                0x000000004a045048                copy_filename
 .text.on_bootfile
                0x000000004a04508c       0x3c net/built-in.o
 .text.ip_to_string
                0x000000004a0450c8       0x28 net/built-in.o
                0x000000004a0450c8                ip_to_string
 .text.string_to_vlan
                0x000000004a0450f0       0x58 net/built-in.o
                0x000000004a0450f0                string_to_vlan
 .text.on_nvlan
                0x000000004a045148       0x30 net/built-in.o
 .text.on_vlan  0x000000004a045178       0x30 net/built-in.o
 .text.rpc_lookup_reply
                0x000000004a0451a8       0xc0 net/built-in.o
 .text.nfs_mount_reply
                0x000000004a045268       0xa0 net/built-in.o
 .text.nfs_umountall_reply
                0x000000004a045308       0x94 net/built-in.o
 .text.nfs_lookup_reply
                0x000000004a04539c      0x11c net/built-in.o
 .text.nfs3_get_attributes_offset
                0x000000004a0454b8       0x14 net/built-in.o
 .text.nfs_readlink_reply
                0x000000004a0454cc      0x144 net/built-in.o
 .text.basename
                0x000000004a045610       0x48 net/built-in.o
 .text.rpc_req  0x000000004a045658      0x12c net/built-in.o
 .text.nfs_umountall_req
                0x000000004a045784       0x78 net/built-in.o
 .text.nfs_read_reply.isra.0
                0x000000004a0457fc      0x16c net/built-in.o
 .text.nfs_mount_req
                0x000000004a045968       0xc0 net/built-in.o
 .text.nfs_readlink_req
                0x000000004a045a28       0xd0 net/built-in.o
 .text.nfs_lookup_req
                0x000000004a045af8      0x154 net/built-in.o
 .text.nfs_read_req
                0x000000004a045c4c       0xf8 net/built-in.o
 .text.nfs_send
                0x000000004a045d44      0x104 net/built-in.o
 .text.nfs_handler
                0x000000004a045e48      0x234 net/built-in.o
 .text.nfs_timeout_handler
                0x000000004a04607c       0x70 net/built-in.o
 .text.nfs_start
                0x000000004a0460ec      0x148 net/built-in.o
                0x000000004a0460ec                nfs_start
 .text.ping_timeout_handler
                0x000000004a046234       0x20 net/built-in.o
 .text.ping_start
                0x000000004a046254      0x118 net/built-in.o
                0x000000004a046254                ping_start
 .text.ping_receive
                0x000000004a04636c       0xf4 net/built-in.o
                0x000000004a04636c                ping_receive
 .text.tftp_send
                0x000000004a046460      0x1ac net/built-in.o
 .text.tftp_handler
                0x000000004a04660c      0x388 net/built-in.o
 .text.tftp_timeout_handler
                0x000000004a046994       0x84 net/built-in.o
 .text.tftp_start
                0x000000004a046a18      0x330 net/built-in.o
                0x000000004a046a18                tftp_start
 .text.do_dm_dump_devres
                0x000000004a046d48        0x8 test/dm/built-in.o
 .text.do_dm    0x000000004a046d50       0x94 test/dm/built-in.o
 .text.do_dm_dump_uclass
                0x000000004a046de4       0x18 test/dm/built-in.o
 .text.do_dm_dump_all
                0x000000004a046dfc       0x18 test/dm/built-in.o
                0x000000004a046e18                . = ALIGN (0x8)

.rodata         0x000000004a046e18    0x10ebe
 *(SORT(.rodata*))
 .rodata        0x000000004a046e18       0x33 cmd/built-in.o
 *fill*         0x000000004a046e4b        0x5 
 .rodata        0x000000004a046e50      0x11b common/built-in.o
 *fill*         0x000000004a046f6b        0x5 
 .rodata        0x000000004a046f70       0x20 lib/built-in.o
 .rodata.CSWTCH.24
                0x000000004a046f90       0x40 common/built-in.o
 .rodata.CSWTCH.35
                0x000000004a046fd0       0x28 cmd/built-in.o
 .rodata.CSWTCH.43
                0x000000004a046ff8       0x40 disk/built-in.o
 .rodata.CSWTCH.49
                0x000000004a047038       0x16 common/built-in.o
 *fill*         0x000000004a04704e        0x2 
 .rodata.CSWTCH.92
                0x000000004a047050       0xd8 common/built-in.o
 .rodata.__FUNCTION__.7971
                0x000000004a047128       0x17 common/built-in.o
 *fill*         0x000000004a04713f        0x1 
 .rodata.__FUNCTION__.8116
                0x000000004a047140       0x17 common/built-in.o
 *fill*         0x000000004a047157        0x1 
 .rodata.__func__.7156
                0x000000004a047158        0xe common/built-in.o
 *fill*         0x000000004a047166        0x2 
 .rodata.__func__.7295
                0x000000004a047168        0xf fs/built-in.o
 *fill*         0x000000004a047177        0x1 
 .rodata.__func__.7415
                0x000000004a047178       0x10 common/built-in.o
 .rodata.__func__.7431
                0x000000004a047188        0xb common/built-in.o
 *fill*         0x000000004a047193        0x5 
 .rodata.__func__.7438
                0x000000004a047198        0xb common/built-in.o
 *fill*         0x000000004a0471a3        0x5 
 .rodata.__func__.7812
                0x000000004a0471a8        0xc lib/built-in.o
 *fill*         0x000000004a0471b4        0x4 
 .rodata.__func__.7820
                0x000000004a0471b8        0xf disk/built-in.o
 *fill*         0x000000004a0471c7        0x1 
 .rodata.__func__.7832
                0x000000004a0471c8       0x12 disk/built-in.o
 *fill*         0x000000004a0471da        0x6 
 .rodata.__func__.7848
                0x000000004a0471e0       0x18 common/built-in.o
 .rodata.__func__.7859
                0x000000004a0471f8        0xe cmd/built-in.o
 *fill*         0x000000004a047206        0x2 
 .rodata.__func__.7896
                0x000000004a047208        0xe cmd/built-in.o
 *fill*         0x000000004a047216        0x2 
 .rodata.__func__.7966
                0x000000004a047218        0xd disk/built-in.o
 *fill*         0x000000004a047225        0x3 
 .rodata.__func__.7975
                0x000000004a047228       0x17 disk/built-in.o
 *fill*         0x000000004a04723f        0x1 
 .rodata.__func__.7980
                0x000000004a047240        0xd disk/built-in.o
 *fill*         0x000000004a04724d        0x3 
 .rodata.__func__.8312
                0x000000004a047250        0xe drivers/built-in.o
 *fill*         0x000000004a04725e        0x2 
 .rodata.__func__.8554
                0x000000004a047260        0xd drivers/built-in.o
 *fill*         0x000000004a04726d        0x3 
 .rodata.__func__.8560
                0x000000004a047270       0x11 drivers/built-in.o
 *fill*         0x000000004a047281        0x7 
 .rodata.__func__.8564
                0x000000004a047288       0x18 drivers/built-in.o
 .rodata.__func__.8568
                0x000000004a0472a0       0x18 drivers/built-in.o
 .rodata.__func__.8572
                0x000000004a0472b8        0xd drivers/built-in.o
 *fill*         0x000000004a0472c5        0x3 
 .rodata.__func__.8576
                0x000000004a0472c8       0x14 drivers/built-in.o
 *fill*         0x000000004a0472dc        0x4 
 .rodata.__func__.8580
                0x000000004a0472e0       0x14 drivers/built-in.o
 *fill*         0x000000004a0472f4        0x4 
 .rodata.__func__.8900
                0x000000004a0472f8        0x9 drivers/mmc/built-in.o
 *fill*         0x000000004a047301        0x7 
 .rodata.__func__.9116
                0x000000004a047308        0xf common/built-in.o
 *fill*         0x000000004a047317        0x1 
 .rodata.__func__.9314
                0x000000004a047318       0x15 drivers/net/built-in.o
 *fill*         0x000000004a04732d        0x3 
 .rodata.__func__.9433
                0x000000004a047330       0x17 drivers/usb/host/built-in.o
 *fill*         0x000000004a047347        0x1 
 .rodata.__func__.9457
                0x000000004a047348       0x22 drivers/net/built-in.o
 *fill*         0x000000004a04736a        0x6 
 .rodata._ctype
                0x000000004a047370      0x100 lib/built-in.o
                0x000000004a047370                _ctype
 .rodata.boot_os
                0x000000004a047470       0xc0 common/built-in.o
 .rodata.cc_to_error
                0x000000004a047530       0x40 drivers/usb/host/built-in.o
 .rodata.cc_to_string
                0x000000004a047570       0x80 drivers/usb/host/built-in.o
 .rodata.crc16_tab
                0x000000004a0475f0      0x200 lib/built-in.o
 .rodata.crc_table
                0x000000004a0477f0      0x400 lib/built-in.o
 .rodata.dbase.7352
                0x000000004a047bf0       0x40 lib/built-in.o
 .rodata.default_environment
                0x000000004a047c30      0xea4 common/built-in.o
                0x000000004a047c30                default_environment
 *fill*         0x000000004a048ad4        0x4 
 .rodata.desc_and_len_tbl
                0x000000004a048ad8       0x60 cmd/built-in.o
 .rodata.dext.7353
                0x000000004a048b38       0x40 lib/built-in.o
 .rodata.digits.7004
                0x000000004a048b78       0x10 lib/built-in.o
 .rodata.distfix
                0x000000004a048b88       0x80 lib/built-in.o
 .rodata.efi_block_io_guid
                0x000000004a048c08       0x10 lib/built-in.o
 .rodata.efi_boot_services
                0x000000004a048c18      0x178 lib/built-in.o
 .rodata.efi_con_in
                0x000000004a048d90       0x18 lib/built-in.o
                0x000000004a048d90                efi_con_in
 .rodata.efi_con_out
                0x000000004a048da8       0x50 lib/built-in.o
                0x000000004a048da8                efi_con_out
 .rodata.efi_console_control
                0x000000004a048df8       0x18 lib/built-in.o
                0x000000004a048df8                efi_console_control
 .rodata.efi_guid_console_control
                0x000000004a048e10       0x10 lib/built-in.o
                0x000000004a048e10                efi_guid_console_control
 .rodata.efi_guid_device_path
                0x000000004a048e20       0x10 lib/built-in.o
                0x000000004a048e20                efi_guid_device_path
 .rodata.efi_guid_loaded_image
                0x000000004a048e30       0x10 lib/built-in.o
                0x000000004a048e30                efi_guid_loaded_image
 .rodata.efi_net_guid
                0x000000004a048e40       0x10 lib/built-in.o
 .rodata.efi_pxe_guid
                0x000000004a048e50       0x10 lib/built-in.o
 .rodata.efi_runtime_detach_list
                0x000000004a048e60       0x70 lib/built-in.o
 .rodata.ehci_usb_ids
                0x000000004a048ed0       0xa0 drivers/usb/host/built-in.o
 .rodata.env_flags_varaccess_mask
                0x000000004a048f70       0x10 common/built-in.o
 .rodata.env_flags_varaccess_rep
                0x000000004a048f80        0x5 common/built-in.o
 *fill*         0x000000004a048f85        0x3 
 .rodata.env_flags_vartype_rep
                0x000000004a048f88        0x7 common/built-in.o
 *fill*         0x000000004a048f8f        0x1 
 .rodata.erase_seq
                0x000000004a048f90        0x4 common/built-in.o
 *fill*         0x000000004a048f94        0x4 
 .rodata.ext_csd_bits.8866
                0x000000004a048f98       0x14 drivers/mmc/built-in.o
 *fill*         0x000000004a048fac        0x4 
 .rodata.ext_to_hostcaps.8867
                0x000000004a048fb0       0x1c drivers/mmc/built-in.o
 *fill*         0x000000004a048fcc        0x4 
 .rodata.fbase  0x000000004a048fd0       0x10 drivers/mmc/built-in.o
 .rodata.fdt_errtable
                0x000000004a048fe0       0x90 lib/built-in.o
 .rodata.generic_simple_bus_ids
                0x000000004a049070       0x30 drivers/built-in.o
 .rodata.gpio_function
                0x000000004a0490a0       0x28 drivers/gpio/built-in.o
 .rodata.gpio_sunxi_ops
                0x000000004a0490c8       0x50 drivers/gpio/built-in.o
 .rodata.hex_asc
                0x000000004a049118       0x11 lib/built-in.o
 *fill*         0x000000004a049129        0x7 
 .rodata.hub_id_table
                0x000000004a049130       0x40 common/built-in.o
 .rodata.init_sequence_f
                0x000000004a049170      0x138 common/built-in.o
 .rodata.kbd_id_table
                0x000000004a0492a8       0x40 common/built-in.o
 .rodata.keywords
                0x000000004a0492e8      0x130 cmd/built-in.o
 .rodata.lbase.7350
                0x000000004a049418       0x3e lib/built-in.o
 *fill*         0x000000004a049456        0x2 
 .rodata.lenfix
                0x000000004a049458      0x800 lib/built-in.o
 .rodata.lext.7351
                0x000000004a049c58       0x3e lib/built-in.o
 *fill*         0x000000004a049c96        0x2 
 .rodata.mass_storage_id_table
                0x000000004a049c98       0x40 common/built-in.o
 .rodata.multipliers
                0x000000004a049cd8       0x10 drivers/mmc/built-in.o
 .rodata.names.7222
                0x000000004a049ce8        0x6 lib/built-in.o
 *fill*         0x000000004a049cee        0x2 
 .rodata.net_bcast_ethaddr
                0x000000004a049cf0        0x6 net/built-in.o
                0x000000004a049cf0                net_bcast_ethaddr
 *fill*         0x000000004a049cf6        0x2 
 .rodata.ns16550_serial_ids
                0x000000004a049cf8       0xc0 drivers/serial/built-in.o
 .rodata.ns16550_serial_ops
                0x000000004a049db8       0x28 drivers/serial/built-in.o
                0x000000004a049db8                ns16550_serial_ops
 .rodata.ohci_usb_ids
                0x000000004a049de0       0xa0 drivers/usb/host/built-in.o
 .rodata.op_adv
                0x000000004a049e80      0x180 cmd/built-in.o
                0x000000004a049e80                op_adv
 .rodata.op_table
                0x000000004a04a000       0xd0 cmd/built-in.o
 .rodata.order.7446
                0x000000004a04a0d0       0x26 lib/built-in.o
 *fill*         0x000000004a04a0f6        0x2 
 .rodata.phy_interface_strings
                0x000000004a04a0f8       0x88 drivers/net/phy/built-in.o
 .rodata.reg_0_5_desc_tbl
                0x000000004a04a180       0x60 cmd/built-in.o
 .rodata.reg_0_desc_tbl
                0x000000004a04a1e0       0xa0 cmd/built-in.o
 .rodata.reg_1_desc_tbl
                0x000000004a04a280      0x100 cmd/built-in.o
 .rodata.reg_2_desc_tbl
                0x000000004a04a380       0x10 cmd/built-in.o
 .rodata.reg_3_desc_tbl
                0x000000004a04a390       0x30 cmd/built-in.o
 .rodata.reg_4_desc_tbl
                0x000000004a04a3c0       0xc0 cmd/built-in.o
 .rodata.reg_5_desc_tbl
                0x000000004a04a480       0xc0 cmd/built-in.o
 .rodata.root_info
                0x000000004a04a540       0x10 drivers/built-in.o
 .rodata.sd_au_size
                0x000000004a04a550       0x40 drivers/mmc/built-in.o
 .rodata.sha1_padding
                0x000000004a04a590       0x40 lib/built-in.o
 .rodata.smbios_guid
                0x000000004a04a5d0       0x10 lib/built-in.o
 .rodata.smbios_write_funcs
                0x000000004a04a5e0       0x38 lib/built-in.o
 .rodata.soc_data_a_all
                0x000000004a04a618        0x8 drivers/gpio/built-in.o
 .rodata.soc_data_l_1
                0x000000004a04a620        0x8 drivers/gpio/built-in.o
 .rodata.soc_data_l_2
                0x000000004a04a628        0x8 drivers/gpio/built-in.o
 .rodata.soc_data_l_3
                0x000000004a04a630        0x8 drivers/gpio/built-in.o
 .rodata.sun8i_emac_eth_ids
                0x000000004a04a638       0x40 drivers/net/built-in.o
 .rodata.sun8i_emac_eth_ops
                0x000000004a04a678       0x38 drivers/net/built-in.o
 .rodata.sunxi_gpio_ids
                0x000000004a04a6b0      0x120 drivers/gpio/built-in.o
 .rodata.sunxi_mmc_ops
                0x000000004a04a7d0       0x28 drivers/mmc/built-in.o
 .rodata.tab_seq
                0x000000004a04a7f8        0x9 common/built-in.o
 *fill*         0x000000004a04a801        0x7 
 .rodata.uimage_arch
                0x000000004a04a808      0x270 common/built-in.o
 .rodata.uimage_comp
                0x000000004a04aa78       0xa8 common/built-in.o
 .rodata.uimage_os
                0x000000004a04ab20       0xf0 common/built-in.o
 .rodata.uimage_type
                0x000000004a04ac10      0x300 common/built-in.o
 .rodata.us_direction
                0x000000004a04af10       0x20 common/built-in.o
 .rodata.usb_hub_ids
                0x000000004a04af30       0x20 common/built-in.o
 .rodata.usb_kbd_arrow
                0x000000004a04af50        0x4 common/built-in.o
 *fill*         0x000000004a04af54        0x4 
 .rodata.usb_kbd_ids
                0x000000004a04af58       0x20 common/built-in.o
 .rodata.usb_kbd_num_keypad
                0x000000004a04af78       0x14 common/built-in.o
 *fill*         0x000000004a04af8c        0x4 
 .rodata.usb_kbd_numkey
                0x000000004a04af90       0x1b common/built-in.o
 *fill*         0x000000004a04afab        0x5 
 .rodata.usb_kbd_numkey_shifted
                0x000000004a04afb0       0x1b common/built-in.o
 *fill*         0x000000004a04afcb        0x5 
 .rodata.usb_mass_storage_ids
                0x000000004a04afd0       0x20 common/built-in.o
 .rodata.version_string
                0x000000004a04aff0       0x52 cmd/built-in.o
                0x000000004a04aff0                version_string
 *fill*         0x000000004a04b042        0x6 
 .rodata.widths.8868
                0x000000004a04b048       0x14 drivers/mmc/built-in.o
 .rodata.binary_test
                0x000000004a04b05c        0xe cmd/built-in.o
 *fill*         0x000000004a04b06a        0x2 
 .rodata.cli_readline_into_buffer
                0x000000004a04b06c       0x40 common/built-in.o
 .rodata.dev_print
                0x000000004a04b0ac       0x14 disk/built-in.o
 .rodata.do_fdt
                0x000000004a04b0c0       0x12 cmd/built-in.o
 *fill*         0x000000004a04b0d2        0x2 
 .rodata.do_itest
                0x000000004a04b0d4        0x7 cmd/built-in.o
 *fill*         0x000000004a04b0db        0x1 
 .rodata.do_test
                0x000000004a04b0dc        0xd cmd/built-in.o
 *fill*         0x000000004a04b0e9        0x3 
 .rodata.efi_load_pe
                0x000000004a04b0ec        0xb lib/built-in.o
 *fill*         0x000000004a04b0f7        0x1 
 .rodata.env_flags_validate
                0x000000004a04b0f8        0x6 common/built-in.o
 *fill*         0x000000004a04b0fe        0x2 
 .rodata.fdt_next_tag
                0x000000004a04b100        0x9 lib/built-in.o
 *fill*         0x000000004a04b109        0x3 
 .rodata.file_fat_detectfs
                0x000000004a04b10c        0x8 fs/built-in.o
 .rodata.inflate
                0x000000004a04b114       0x3a lib/built-in.o
 *fill*         0x000000004a04b14e        0x2 
 .rodata.load_serial
                0x000000004a04b150        0x9 cmd/built-in.o
 *fill*         0x000000004a04b159        0x3 
 .rodata.match  0x000000004a04b15c       0x22 lib/built-in.o
 *fill*         0x000000004a04b17e        0x2 
 .rodata.mmc_set_capacity
                0x000000004a04b180        0x8 drivers/mmc/built-in.o
 .rodata.mmc_startup
                0x000000004a04b188       0x18 drivers/mmc/built-in.o
 .rodata.net_loop
                0x000000004a04b1a0       0x24 net/built-in.o
 .rodata.nfs_handler
                0x000000004a04b1c4        0x7 net/built-in.o
 *fill*         0x000000004a04b1cb        0x1 
 .rodata.nfs_send
                0x000000004a04b1cc        0x7 net/built-in.o
 *fill*         0x000000004a04b1d3        0x1 
 .rodata.ohci_submit_control_msg
                0x000000004a04b1d4       0x1c drivers/usb/host/built-in.o
 .rodata.parse_pxefile_top
                0x000000004a04b1f0       0x37 cmd/built-in.o
 *fill*         0x000000004a04b227        0x1 
 .rodata.part_get_info_iso_verb
                0x000000004a04b228        0x5 disk/built-in.o
 *fill*         0x000000004a04b22d        0x3 
 .rodata.part_print
                0x000000004a04b230        0x9 disk/built-in.o
 *fill*         0x000000004a04b239        0x3 
 .rodata.srec_decode
                0x000000004a04b23c        0xa common/built-in.o
 *fill*         0x000000004a04b246        0x2 
 .rodata.sunxi_mmc_getcd_gpio
                0x000000004a04b248        0x4 drivers/mmc/built-in.o
 .rodata.sunxi_mmc_init
                0x000000004a04b24c        0x4 drivers/mmc/built-in.o
 .rodata.tftp_send
                0x000000004a04b250        0x7 net/built-in.o
 *fill*         0x000000004a04b257        0x1 
 .rodata.usb_display_class_sub
                0x000000004a04b258        0x6 cmd/built-in.o
 .rodata        0x000000004a04b25e       0x3f drivers/usb/host/built-in.o
 .rodata        0x000000004a04b29d        0x7 net/built-in.o
 .rodata._do_env_set.isra.0.str1.1
                0x000000004a04b2a4       0x7c cmd/built-in.o
 .rodata._do_help.str1.1
                0x000000004a04b320       0x5f common/built-in.o
 .rodata._ehci_create_int_queue.isra.5.str1.1
                0x000000004a04b37f       0x3d drivers/usb/host/built-in.o
 .rodata._ehci_destroy_int_queue.str1.1
                0x000000004a04b3bc       0x2d drivers/usb/host/built-in.o
 .rodata._gpio_request_by_name_nodev.str1.1
                0x000000004a04b3e9       0x1a drivers/gpio/built-in.o
 .rodata.announce_dram_init.str1.1
                0x000000004a04b403        0x8 common/built-in.o
 .rodata.arp_receive.str1.1
                0x000000004a04b40b       0x14 net/built-in.o
 .rodata.arp_request.str1.1
                0x000000004a04b41f       0x2a net/built-in.o
 .rodata.arp_timeout_check.str1.1
                0x000000004a04b449       0x2b net/built-in.o
 .rodata.autoboot_command.str1.1
                0x000000004a04b474       0x31 common/built-in.o
 .rodata.b_addqchr.str1.1
                0x000000004a04b4a5        0x5 common/built-in.o
 .rodata.binary_test.str1.1
                0x000000004a04b4aa       0x17 cmd/built-in.o
 .rodata.blk_get_device_by_str.str1.1
                0x000000004a04b4c1       0x6a disk/built-in.o
 .rodata.blk_get_device_part_str.str1.1
                0x000000004a04b52b      0x112 disk/built-in.o
                                        0x11b (size before relaxing)
 .rodata.board_init.str1.1
                0x000000004a04b63d        0xf board/sunxi/built-in.o
                                         0x10 (size before relaxing)
 .rodata.boot_fdt_add_mem_rsv_regions.str1.1
                0x000000004a04b64c       0x35 common/built-in.o
 .rodata.boot_get_fdt.str1.1
                0x000000004a04b681      0x1b5 common/built-in.o
                                        0x1d4 (size before relaxing)
 .rodata.boot_get_loadable.str1.1
                0x000000004a04b836       0x3e common/built-in.o
 .rodata.boot_get_ramdisk.str1.1
                0x000000004a04b874       0xb7 common/built-in.o
                                        0x115 (size before relaxing)
 .rodata.boot_get_setup_fit.str1.1
                0x000000004a04b92b       0xbb common/built-in.o
                                          0x6 (size before relaxing)
 .rodata.boot_jump_linux.str1.1
                0x000000004a04b92b       0x30 arch/arm/lib/built-in.o
                                         0x31 (size before relaxing)
 .rodata.boot_prep_linux.str1.1
                0x000000004a04b95b       0x20 arch/arm/lib/built-in.o
                                         0x29 (size before relaxing)
 .rodata.boot_prep_vxworks.str1.1
                0x000000004a04b97b       0x2a arch/arm/lib/built-in.o
 .rodata.boot_ramdisk_high.str1.1
                0x000000004a04b9a5       0x54 common/built-in.o
 .rodata.boot_relocate_fdt.str1.1
                0x000000004a04b9f9       0xcf common/built-in.o
                                         0xd3 (size before relaxing)
 .rodata.bootdelay_process.str1.1
                0x000000004a04bac8       0x3a common/built-in.o
                                         0x42 (size before relaxing)
 .rodata.bootm_decomp_image.str1.1
                0x000000004a04bb02       0x99 common/built-in.o
                                         0xc0 (size before relaxing)
 .rodata.bootm_find_images.str1.1
                0x000000004a04bb9b       0x6c common/built-in.o
 .rodata.bootm_maybe_autostart.str1.1
                0x000000004a04bc07       0x3b cmd/built-in.o
 .rodata.bootp_request.str1.1
                0x000000004a04bc42       0x25 net/built-in.o
 .rodata.bootp_timeout_handler.str1.1
                0x000000004a04bc67       0x26 net/built-in.o
 .rodata.calculate_hash.str1.1
                0x000000004a04bc8d        0x4 common/built-in.o
                                         0x16 (size before relaxing)
 .rodata.check_reserved.str1.1
                0x000000004a04bc91       0x27 drivers/gpio/built-in.o
                                         0x28 (size before relaxing)
 .rodata.cli_process_fdt.str1.1
                0x000000004a04bcb8        0xb common/built-in.o
                                         0x13 (size before relaxing)
 .rodata.cli_readline_into_buffer.str1.1
                0x000000004a04bcc3        0x7 common/built-in.o
                                          0x8 (size before relaxing)
 .rodata.cli_secure_boot_cmd.str1.1
                0x000000004a04bcca       0x50 common/built-in.o
 .rodata.cmd_auto_complete.str1.1
                0x000000004a04bd1a       0x5f common/built-in.o
                                          0xf (size before relaxing)
 .rodata.cmd_process.str1.1
                0x000000004a04bd1a       0x3f common/built-in.o
 .rodata.cmd_process_error.str1.1
                0x000000004a04bd59       0x1f common/built-in.o
 .rodata.cmd_usage.str1.1
                0x000000004a04bd78       0x36 common/built-in.o
 .rodata.common_diskboot.str1.1
                0x000000004a04bdae       0xbf cmd/built-in.o
 .rodata.compile.str1.1
                0x000000004a04be6d       0x4a lib/built-in.o
 .rodata.cread_add_char.str1.1
                0x000000004a04beb7        0x5 common/built-in.o
 .rodata.create_table.str1.1
                0x000000004a04bebc       0x62 arch/arm/cpu/armv8/built-in.o
 .rodata.dev_get_addr_index.str1.1
                0x000000004a04bf1e        0x4 drivers/built-in.o
 .rodata.dev_get_addr_name.str1.1
                0x000000004a04bf1e        0xa drivers/built-in.o
 .rodata.dev_get_platdata.str1.1
                0x000000004a04bf28       0x11 drivers/built-in.o
 .rodata.dev_print.str1.1
                0x000000004a04bf39      0x14d disk/built-in.o
                                        0x15e (size before relaxing)
 .rodata.device_bind_common.isra.0.str1.1
                0x000000004a04c086       0x5b drivers/built-in.o
 .rodata.device_probe.str1.1
                0x000000004a04c0e1       0x30 drivers/built-in.o
 .rodata.device_remove.str1.1
                0x000000004a04c111       0x98 drivers/built-in.o
 .rodata.dhcp_extended.str1.1
                0x000000004a04c1a9       0x37 net/built-in.o
                                         0x3f (size before relaxing)
 .rodata.dhcp_handler.str1.1
                0x000000004a04c1e0       0x41 net/built-in.o
                                         0x4a (size before relaxing)
 .rodata.dhcp_process_options.str1.1
                0x000000004a04c221       0x78 net/built-in.o
 .rodata.disable_periodic.isra.1.str1.1
                0x000000004a04c299       0x33 drivers/usb/host/built-in.o
 .rodata.disk_write.str1.1
                0x000000004a04c2cc       0x18 fs/built-in.o
 .rodata.display_options.str1.1
                0x000000004a04c2e4        0x7 lib/built-in.o
 .rodata.dm_dump_all.str1.1
                0x000000004a04c2eb       0x1c drivers/built-in.o
                                         0x46 (size before relaxing)
 .rodata.dm_dump_uclass.str1.1
                0x000000004a04c307       0x32 drivers/built-in.o
                                         0x34 (size before relaxing)
 .rodata.dm_fdt_pre_reloc.str1.1
                0x000000004a04c339       0x30 drivers/built-in.o
 .rodata.dm_gpio_get_value.str1.1
                0x000000004a04c369        0xa drivers/gpio/built-in.o
 .rodata.dm_gpio_set_dir_flags.str1.1
                0x000000004a04c373        0x8 drivers/gpio/built-in.o
 .rodata.dm_gpio_set_value.str1.1
                0x000000004a04c37b        0xa drivers/gpio/built-in.o
 .rodata.dm_init.str1.1
                0x000000004a04c385       0x25 drivers/built-in.o
 .rodata.dm_root.str1.1
                0x000000004a04c3aa       0x25 drivers/built-in.o
 .rodata.dm_scan_fdt_node.str1.1
                0x000000004a04c3cf       0x1d drivers/built-in.o
 .rodata.dm_scan_platdata.str1.1
                0x000000004a04c3ec       0x1d drivers/built-in.o
 .rodata.do_bad_error.str1.1
                0x000000004a04c409       0x29 arch/arm/lib/built-in.o
 .rodata.do_bad_fiq.str1.1
                0x000000004a04c432       0x27 arch/arm/lib/built-in.o
 .rodata.do_bad_irq.str1.1
                0x000000004a04c459       0x27 arch/arm/lib/built-in.o
 .rodata.do_bad_sync.str1.1
                0x000000004a04c480       0x48 arch/arm/lib/built-in.o
 .rodata.do_bdinfo.str1.1
                0x000000004a04c4c8       0x95 cmd/built-in.o
 .rodata.do_bootd.str1.1
                0x000000004a04c55d        0x8 cmd/built-in.o
 .rodata.do_bootefi.str1.1
                0x000000004a04c565       0x4d cmd/built-in.o
 .rodata.do_bootefi_exec.str1.1
                0x000000004a04c5b2       0x59 cmd/built-in.o
 .rodata.do_bootelf.str1.1
                0x000000004a04c60b       0x52 cmd/built-in.o
                                         0x5c (size before relaxing)
 .rodata.do_booti.str1.1
                0x000000004a04c65d       0x4c cmd/built-in.o
 .rodata.do_bootm.str1.1
                0x000000004a04c6a9       0x2a cmd/built-in.o
 .rodata.do_bootm_netbsd.str1.1
                0x000000004a04c6d3       0x49 common/built-in.o
                                         0x4a (size before relaxing)
 .rodata.do_bootm_plan9.str1.1
                0x000000004a04c71c       0x43 common/built-in.o
                                         0x4c (size before relaxing)
 .rodata.do_bootm_qnxelf.str1.1
                0x000000004a04c75f        0x4 common/built-in.o
 .rodata.do_bootm_rtems.str1.1
                0x000000004a04c75f       0x39 common/built-in.o
 .rodata.do_bootm_standalone.str1.1
                0x000000004a04c798       0x16 common/built-in.o
 .rodata.do_bootm_states.str1.1
                0x000000004a04c798      0x287 common/built-in.o
                                        0x2ff (size before relaxing)
 .rodata.do_bootvx.str1.1
                0x000000004a04ca1f      0x1c5 cmd/built-in.o
                                        0x1d0 (size before relaxing)
 .rodata.do_bootvx_fdt.str1.1
                0x000000004a04cbe4       0x57 common/built-in.o
                                         0x75 (size before relaxing)
 .rodata.do_coninfo.str1.1
                0x000000004a04cc3b       0x2c cmd/built-in.o
                                         0x30 (size before relaxing)
 .rodata.do_echo.str1.1
                0x000000004a04cc67        0x3 cmd/built-in.o
 .rodata.do_env_default.str1.1
                0x000000004a04cc6a       0x25 cmd/built-in.o
 .rodata.do_env_edit.part.2.str1.1
                0x000000004a04cc8f        0x7 cmd/built-in.o
                                          0xa (size before relaxing)
 .rodata.do_env_export.str1.1
                0x000000004a04cc96       0x41 cmd/built-in.o
                                         0x4a (size before relaxing)
 .rodata.do_env_import.str1.1
                0x000000004a04ccd7      0x152 cmd/built-in.o
 .rodata.do_env_print.str1.1
                0x000000004a04ce29       0x3d cmd/built-in.o
 .rodata.do_env_save.str1.1
                0x000000004a04ce66       0x1d cmd/built-in.o
 .rodata.do_error.str1.1
                0x000000004a04ce83       0x48 arch/arm/lib/built-in.o
                                         0x1d (size before relaxing)
 .rodata.do_fat_fsinfo.str1.1
                0x000000004a04ce83       0x56 cmd/built-in.o
 .rodata.do_fat_fswrite.str1.1
                0x000000004a04ced9       0x6b cmd/built-in.o
 .rodata.do_fat_read_at.str1.1
                0x000000004a04cf44       0x82 fs/built-in.o
                                         0x83 (size before relaxing)
 .rodata.do_fat_write.str1.1
                0x000000004a04cfc6       0xc3 fs/built-in.o
 .rodata.do_fdt.str1.1
                0x000000004a04d089      0x49d cmd/built-in.o
                                        0x4c4 (size before relaxing)
 .rodata.do_fiq.str1.1
                0x000000004a04d526       0x48 arch/arm/lib/built-in.o
                                         0x1b (size before relaxing)
 .rodata.do_fixup_by_path.str1.1
                0x000000004a04d526       0x29 common/built-in.o
 .rodata.do_fs_uuid.str1.1
                0x000000004a04d54f        0x4 fs/built-in.o
 .rodata.do_get_any.str1.1
                0x000000004a04d54f        0x5 cmd/built-in.o
 .rodata.do_get_ext2.str1.1
                0x000000004a04d54f        0x9 cmd/built-in.o
 .rodata.do_get_fat.str1.1
                0x000000004a04d54f        0x8 cmd/built-in.o
 .rodata.do_get_tftp.str1.1
                0x000000004a04d54f        0x5 cmd/built-in.o
 .rodata.do_go.str1.1
                0x000000004a04d54f       0x4f cmd/built-in.o
 .rodata.do_gpio.str1.1
                0x000000004a04d59e       0xc4 cmd/built-in.o
                                         0xd2 (size before relaxing)
 .rodata.do_imgextract.str1.1
                0x000000004a04d662      0x1af cmd/built-in.o
                                        0x296 (size before relaxing)
 .rodata.do_irq.str1.1
                0x000000004a04d811       0x48 arch/arm/lib/built-in.o
                                         0x1b (size before relaxing)
 .rodata.do_itest.str1.1
                0x000000004a04d811       0x1e cmd/built-in.o
 .rodata.do_load.str1.1
                0x000000004a04d82f       0x39 fs/built-in.o
                                         0x5b (size before relaxing)
 .rodata.do_load_serial.str1.1
                0x000000004a04d868       0x6b cmd/built-in.o
 .rodata.do_load_serial_bin.str1.1
                0x000000004a04d8d3      0x159 cmd/built-in.o
 .rodata.do_load_wrapper.str1.1
                0x000000004a04da2c        0x1 cmd/built-in.o
 .rodata.do_ls.str1.1
                0x000000004a04da2c        0x2 fs/built-in.o
 .rodata.do_mdio.str1.1
                0x000000004a04da2c       0x65 cmd/built-in.o
 .rodata.do_mem_base.str1.1
                0x000000004a04da91       0x17 cmd/built-in.o
 .rodata.do_mem_cmp.str1.1
                0x000000004a04daa8       0x6a cmd/built-in.o
                                         0x6f (size before relaxing)
 .rodata.do_mem_cp.str1.1
                0x000000004a04db12       0x11 cmd/built-in.o
 .rodata.do_mem_crc.str1.1
                0x000000004a04db23        0x6 cmd/built-in.o
 .rodata.do_mii.str1.1
                0x000000004a04db29      0x297 cmd/built-in.o
                                        0x2b0 (size before relaxing)
 .rodata.do_mmc_dev.str1.1
                0x000000004a04ddc0       0x89 cmd/built-in.o
 .rodata.do_mmc_erase.str1.1
                0x000000004a04de49       0x67 cmd/built-in.o
 .rodata.do_mmc_hwpartition.str1.1
                0x000000004a04deb0      0x126 cmd/built-in.o
                                        0x142 (size before relaxing)
 .rodata.do_mmc_part.str1.1
                0x000000004a04dfd6       0x15 cmd/built-in.o
 .rodata.do_mmc_read.str1.1
                0x000000004a04dfeb       0x43 cmd/built-in.o
 .rodata.do_mmc_setdsr.str1.1
                0x000000004a04e02e       0x1d cmd/built-in.o
 .rodata.do_mmc_write.str1.1
                0x000000004a04e04b       0x47 cmd/built-in.o
 .rodata.do_mmcinfo.str1.1
                0x000000004a04e092      0x107 cmd/built-in.o
                                        0x159 (size before relaxing)
 .rodata.do_mmcops.str1.1
                0x000000004a04e199       0x19 cmd/built-in.o
 .rodata.do_part.str1.1
                0x000000004a04e1b2       0x16 cmd/built-in.o
                                         0x15 (size before relaxing)
 .rodata.do_part_list.str1.1
                0x000000004a04e1b2       0x22 cmd/built-in.o
                                         0x25 (size before relaxing)
 .rodata.do_part_start.str1.1
                0x000000004a04e1d4        0x4 cmd/built-in.o
                                          0x8 (size before relaxing)
 .rodata.do_ping.str1.1
                0x000000004a04e1d8       0x35 cmd/built-in.o
 .rodata.do_pxe_boot.str1.1
                0x000000004a04e20d       0x38 cmd/built-in.o
 .rodata.do_pxe_get.str1.1
                0x000000004a04e245       0x41 cmd/built-in.o
                                         0x46 (size before relaxing)
 .rodata.do_reset.str1.1
                0x000000004a04e286        0xf arch/arm/lib/built-in.o
 .rodata.do_run.str1.1
                0x000000004a04e295       0x1c common/built-in.o
 .rodata.do_save.str1.1
                0x000000004a04e295       0x1d fs/built-in.o
 .rodata.do_setexpr.str1.1
                0x000000004a04e2b2       0x11 cmd/built-in.o
                                         0x15 (size before relaxing)
 .rodata.do_showvar.str1.1
                0x000000004a04e2c3        0xc common/built-in.o
                                         0x2f (size before relaxing)
 .rodata.do_size.str1.1
                0x000000004a04e2cf        0x9 fs/built-in.o
 .rodata.do_source.str1.1
                0x000000004a04e2cf       0x1e cmd/built-in.o
 .rodata.do_sync.str1.1
                0x000000004a04e2ed       0x48 arch/arm/lib/built-in.o
                                         0x29 (size before relaxing)
 .rodata.do_sysboot.str1.1
                0x000000004a04e2ed       0x43 cmd/built-in.o
 .rodata.do_usb.str1.1
                0x000000004a04e330      0x388 cmd/built-in.o
                                        0x3c2 (size before relaxing)
 .rodata.do_usbboot.str1.1
                0x000000004a04e6b8        0x4 cmd/built-in.o
 .rodata.do_version.str1.1
                0x000000004a04e6bc       0x76 cmd/built-in.o
 .rodata.efi_cout_clear_screen.str1.1
                0x000000004a04e732        0x5 lib/built-in.o
 .rodata.efi_cout_enable_cursor.str1.1
                0x000000004a04e737        0x8 lib/built-in.o
 .rodata.efi_cout_query_mode.str1.1
                0x000000004a04e73f        0x6 lib/built-in.o
 .rodata.efi_cout_set_cursor_position.str1.1
                0x000000004a04e745        0x9 lib/built-in.o
 .rodata.efi_disk_register.str1.1
                0x000000004a04e74e       0x2f lib/built-in.o
                                         0x34 (size before relaxing)
 .rodata.efi_load_pe.str1.1
                0x000000004a04e77d       0xa0 lib/built-in.o
 .rodata.efi_runtime_relocate.str1.1
                0x000000004a04e81d       0x34 lib/built-in.o
 .rodata.efi_set_bootdev.str1.1
                0x000000004a04e851        0x9 cmd/built-in.o
                                         0x15 (size before relaxing)
 .rodata.efi_set_timer.str1.1
                0x000000004a04e85a       0x2b lib/built-in.o
 .rodata.ehci_register.str1.1
                0x000000004a04e885       0x26 drivers/usb/host/built-in.o
 .rodata.ehci_shutdown.str1.1
                0x000000004a04e8ab       0x2b drivers/usb/host/built-in.o
 .rodata.ehci_submit_async.str1.1
                0x000000004a04e8d6       0xb5 drivers/usb/host/built-in.o
 .rodata.ehci_submit_control_msg.str1.1
                0x000000004a04e98b       0x16 drivers/usb/host/built-in.o
 .rodata.ehci_submit_int_msg.str1.1
                0x000000004a04e9a1       0x24 drivers/usb/host/built-in.o
 .rodata.ehci_td_buffer.str1.1
                0x000000004a04e9c5       0x29 drivers/usb/host/built-in.o
 .rodata.emit.str1.1
                0x000000004a04e9ee       0x1f lib/built-in.o
 .rodata.enable_periodic.isra.2.str1.1
                0x000000004a04ea0d       0x32 drivers/usb/host/built-in.o
 .rodata.env_callback_init.str1.1
                0x000000004a04ea3f        0xb common/built-in.o
 .rodata.env_complete.str1.1
                0x000000004a04ea4a       0x1b common/built-in.o
                                          0x4 (size before relaxing)
 .rodata.env_export.str1.1
                0x000000004a04ea4a       0x3d common/built-in.o
 .rodata.env_flags_init.str1.1
                0x000000004a04ea4a        0x7 common/built-in.o
 .rodata.env_flags_parse_varaccess.str1.1
                0x000000004a04ea51       0x3d common/built-in.o
 .rodata.env_flags_parse_vartype.str1.1
                0x000000004a04ea8e       0x34 common/built-in.o
 .rodata.env_flags_validate.str1.1
                0x000000004a04eac2       0xb2 common/built-in.o
                                         0xb3 (size before relaxing)
 .rodata.env_import.str1.1
                0x000000004a04eb74       0x55 common/built-in.o
 .rodata.env_print.str1.1
                0x000000004a04ebc9       0x25 cmd/built-in.o
                                         0x2c (size before relaxing)
 .rodata.env_relocate_spec.str1.1
                0x000000004a04ebee        0xd common/built-in.o
 .rodata.eth_current_changed.str1.1
                0x000000004a04ebfb       0x14 net/built-in.o
 .rodata.eth_get_name.str1.1
                0x000000004a04ebfb        0x8 net/built-in.o
 .rodata.eth_getenv_enetaddr_by_index.str1.1
                0x000000004a04ebfb       0x10 net/built-in.o
 .rodata.eth_init.str1.1
                0x000000004a04ec0b       0x11 net/built-in.o
                                         0x28 (size before relaxing)
 .rodata.eth_initialize.str1.1
                0x000000004a04ec1c       0x1c net/built-in.o
                                         0x1f (size before relaxing)
 .rodata.eth_mac_skip.str1.1
                0x000000004a04ec38       0x18 net/built-in.o
 .rodata.eth_post_bind.str1.1
                0x000000004a04ec50       0x2b net/built-in.o
 .rodata.eth_post_probe.str1.1
                0x000000004a04ec7b       0xaf net/built-in.o
                                         0xb3 (size before relaxing)
 .rodata.eth_set_current.str1.1
                0x000000004a04ed2a        0x9 net/built-in.o
 .rodata.eth_setenv_enetaddr.str1.1
                0x000000004a04ed2a        0x4 net/built-in.o
 .rodata.eth_write_hwaddr.str1.1
                0x000000004a04ed2e       0x4e net/built-in.o
 .rodata.ext4_read_file.str1.1
                0x000000004a04ed7c       0x19 fs/built-in.o
 .rodata.ext4fs_devread.str1.1
                0x000000004a04ed95       0xa6 fs/built-in.o
 .rodata.ext4fs_iterate_dir.str1.1
                0x000000004a04ee3b       0x43 fs/built-in.o
                                         0x4a (size before relaxing)
 .rodata.ext4fs_ls.str1.1
                0x000000004a04ee7e       0x1f fs/built-in.o
 .rodata.ext4fs_mount.str1.1
                0x000000004a04ee9d       0x24 fs/built-in.o
 .rodata.fat_read_file.str1.1
                0x000000004a04eec1       0x1e fs/built-in.o
 .rodata.fat_set_blk_dev.str1.1
                0x000000004a04eedf        0x3 fs/built-in.o
                                          0xd (size before relaxing)
 .rodata.fdt_address_cells.str1.1
                0x000000004a04eee2        0xf lib/built-in.o
 .rodata.fdt_chosen.str1.1
                0x000000004a04eef1       0x6c common/built-in.o
                                         0x75 (size before relaxing)
 .rodata.fdt_error.str1.1
                0x000000004a04ef5d       0x2d common/built-in.o
 .rodata.fdt_find_or_add_subnode.str1.1
                0x000000004a04ef8a        0xc common/built-in.o
 .rodata.fdt_fixup_ethernet.str1.1
                0x000000004a04ef96       0x24 common/built-in.o
                                         0x42 (size before relaxing)
 .rodata.fdt_fixup_memory_banks.str1.1
                0x000000004a04efba       0x85 common/built-in.o
                                         0x94 (size before relaxing)
 .rodata.fdt_get_alias_namelen.str1.1
                0x000000004a04f03f        0x9 lib/built-in.o
 .rodata.fdt_get_phandle.str1.1
                0x000000004a04f03f        0xe lib/built-in.o
                                         0x16 (size before relaxing)
 .rodata.fdt_initrd.str1.1
                0x000000004a04f04d       0x90 common/built-in.o
                                         0x97 (size before relaxing)
 .rodata.fdt_root.str1.1
                0x000000004a04f0dd       0x46 common/built-in.o
                                         0x4e (size before relaxing)
 .rodata.fdt_size_cells.str1.1
                0x000000004a04f123        0xc lib/built-in.o
 .rodata.fdt_strerror.str1.1
                0x000000004a04f123       0x31 lib/built-in.o
 .rodata.fdt_translate_address.str1.1
                0x000000004a04f154       0x22 common/built-in.o
 .rodata.fdt_valid.str1.1
                0x000000004a04f176       0x79 cmd/built-in.o
                                         0x7b (size before relaxing)
 .rodata.fdtdec_add_aliases_for_id.str1.1
                0x000000004a04f1ef        0x9 lib/built-in.o
 .rodata.fdtdec_get_chosen_prop.str1.1
                0x000000004a04f1ef        0x8 lib/built-in.o
 .rodata.fdtdec_get_config_int.str1.1
                0x000000004a04f1ef        0x8 lib/built-in.o
 .rodata.fdtdec_get_is_enabled.str1.1
                0x000000004a04f1f7        0x5 lib/built-in.o
                                          0xc (size before relaxing)
 .rodata.fdtdec_prepare_fdt.str1.1
                0x000000004a04f1fc       0x96 lib/built-in.o
 .rodata.fdtdec_setup.str1.1
                0x000000004a04f292        0xf lib/built-in.o
 .rodata.file_fat_detectfs.str1.1
                0x000000004a04f292       0x64 fs/built-in.o
                                         0x84 (size before relaxing)
 .rodata.file_fat_read_at.str1.1
                0x000000004a04f2f6        0xc fs/built-in.o
 .rodata.file_fat_write.str1.1
                0x000000004a04f302       0x40 fs/built-in.o
 .rodata.file_get.str1.1
                0x000000004a04f342        0xc common/built-in.o
                                          0x7 (size before relaxing)
 .rodata.find_mmc_device.str1.1
                0x000000004a04f342       0x19 drivers/mmc/built-in.o
 .rodata.fit_all_image_verify.str1.1
                0x000000004a04f35b       0x7a common/built-in.o
 .rodata.fit_conf_find_compat.str1.1
                0x000000004a04f3d5       0x1b common/built-in.o
                                         0x1f (size before relaxing)
 .rodata.fit_conf_get_node.str1.1
                0x000000004a04f3f0        0x8 common/built-in.o
 .rodata.fit_conf_print.str1.1
                0x000000004a04f3f0       0x7b common/built-in.o
                                         0x99 (size before relaxing)
 .rodata.fit_get_desc.str1.1
                0x000000004a04f46b        0xc common/built-in.o
 .rodata.fit_image_get_address.str1.1
                0x000000004a04f477       0x1d common/built-in.o
 .rodata.fit_image_get_arch.str1.1
                0x000000004a04f494       0x1d common/built-in.o
                                          0x5 (size before relaxing)
 .rodata.fit_image_get_comp.str1.1
                0x000000004a04f494        0xc common/built-in.o
 .rodata.fit_image_get_data.str1.1
                0x000000004a04f494        0x5 common/built-in.o
 .rodata.fit_image_get_entry.str1.1
                0x000000004a04f499        0x6 common/built-in.o
 .rodata.fit_image_get_load.str1.1
                0x000000004a04f49f        0x5 common/built-in.o
 .rodata.fit_image_get_node.str1.1
                0x000000004a04f49f        0x8 common/built-in.o
 .rodata.fit_image_get_os.str1.1
                0x000000004a04f4a7        0x8 common/built-in.o
                                          0x3 (size before relaxing)
 .rodata.fit_image_get_type.str1.1
                0x000000004a04f4a7        0x8 common/built-in.o
                                          0x5 (size before relaxing)
 .rodata.fit_image_hash_get_algo.str1.1
                0x000000004a04f4a7        0x5 common/built-in.o
 .rodata.fit_image_hash_get_value.str1.1
                0x000000004a04f4ac        0x5 common/built-in.o
                                          0x6 (size before relaxing)
 .rodata.fit_image_load.str1.1
                0x000000004a04f4ac      0x1cd common/built-in.o
                                        0x1e0 (size before relaxing)
 .rodata.fit_image_print.str1.1
                0x000000004a04f679       0xd0 common/built-in.o
                                         0xdd (size before relaxing)
 .rodata.fit_image_print_data.str1.1
                0x000000004a04f749       0x67 common/built-in.o
                                         0x75 (size before relaxing)
 .rodata.fit_image_verify.str1.1
                0x000000004a04f7b0       0xfa common/built-in.o
 .rodata.fit_print_contents.str1.1
                0x000000004a04f8aa       0x60 common/built-in.o
                                         0x64 (size before relaxing)
 .rodata.flush_dir_table.constprop.10.str1.1
                0x000000004a04f90a       0x21 fs/built-in.o
 .rodata.format_mac_pxe.constprop.6.str1.1
                0x000000004a04f92b       0x25 cmd/built-in.o
 .rodata.from_env.str1.1
                0x000000004a04f950       0x22 cmd/built-in.o
 .rodata.fs_probe_unsupported.str1.1
                0x000000004a04f972       0x24 fs/built-in.o
 .rodata.fs_read.str1.1
                0x000000004a04f996       0x24 fs/built-in.o
 .rodata.fs_write.str1.1
                0x000000004a04f9ba       0x1f fs/built-in.o
 .rodata.genimg_get_arch_id.str1.1
                0x000000004a04f9d9       0x54 common/built-in.o
                                          0x4 (size before relaxing)
 .rodata.genimg_get_arch_name.str1.1
                0x000000004a04f9d9       0x15 common/built-in.o
 .rodata.genimg_get_comp_id.str1.1
                0x000000004a04f9ee       0x15 common/built-in.o
                                          0xc (size before relaxing)
 .rodata.genimg_get_comp_name.str1.1
                0x000000004a04f9ee       0x14 common/built-in.o
 .rodata.genimg_get_os_id.str1.1
                0x000000004a04fa02       0x14 common/built-in.o
                                          0x3 (size before relaxing)
 .rodata.genimg_get_os_name.str1.1
                0x000000004a04fa02        0xb common/built-in.o
 .rodata.genimg_get_type_id.str1.1
                0x000000004a04fa0d        0xb common/built-in.o
                                          0x6 (size before relaxing)
 .rodata.genimg_get_type_name.str1.1
                0x000000004a04fa0d        0xe common/built-in.o
 .rodata.genimg_print_size.str1.1
                0x000000004a04fa1b        0xc common/built-in.o
                                          0xe (size before relaxing)
 .rodata.genphy_update_link.str1.1
                0x000000004a04fa27       0x54 drivers/net/phy/built-in.o
                                         0x56 (size before relaxing)
 .rodata.get_cluster.str1.1
                0x000000004a04fa7b       0x25 fs/built-in.o
 .rodata.get_descriptor_len.str1.1
                0x000000004a04faa0       0x64 common/built-in.o
 .rodata.get_fatent.str1.1
                0x000000004a04fb04       0x22 fs/built-in.o
 .rodata.get_local_var.str1.1
                0x000000004a04fb26        0x3 common/built-in.o
 .rodata.get_phy_device_by_mask.str1.1
                0x000000004a04fb29       0x29 drivers/net/phy/built-in.o
 .rodata.get_pxe_file.str1.1
                0x000000004a04fb52        0x9 cmd/built-in.o
 .rodata.get_pxelinux_path.str1.1
                0x000000004a04fb52       0x3e cmd/built-in.o
 .rodata.get_relfile.str1.1
                0x000000004a04fb90       0x56 cmd/built-in.o
                                         0x63 (size before relaxing)
 .rodata.get_vfatname.str1.1
                0x000000004a04fbe6       0x13 fs/built-in.o
 .rodata.getenv_bootm_low.str1.1
                0x000000004a04fbf9        0xa common/built-in.o
 .rodata.getenv_bootm_mapsize.str1.1
                0x000000004a04fc03        0xe common/built-in.o
 .rodata.getenv_bootm_size.str1.1
                0x000000004a04fc11        0xb common/built-in.o
 .rodata.getenv_f.str1.1
                0x000000004a04fc1c       0x30 cmd/built-in.o
 .rodata.gpio_direction_input.str1.1
                0x000000004a04fc4c        0xa drivers/gpio/built-in.o
 .rodata.gpio_direction_output.str1.1
                0x000000004a04fc56        0xb drivers/gpio/built-in.o
 .rodata.gpio_get_description.str1.1
                0x000000004a04fc61        0xa cmd/built-in.o
                                         0x18 (size before relaxing)
 .rodata.gpio_get_status.str1.1
                0x000000004a04fc6b       0x17 drivers/gpio/built-in.o
                                         0x19 (size before relaxing)
 .rodata.gunzip.str1.1
                0x000000004a04fc82       0x3e lib/built-in.o
 .rodata.handle_include.str1.1
                0x000000004a04fcc0       0x33 cmd/built-in.o
 .rodata.handle_pxe_menu.str1.1
                0x000000004a04fcf3       0x15 cmd/built-in.o
                                         0x18 (size before relaxing)
 .rodata.hang.str1.1
                0x000000004a04fd08       0x2a lib/built-in.o
 .rodata.hash_command.str1.1
                0x000000004a04fd32       0x58 common/built-in.o
                                         0x5f (size before relaxing)
 .rodata.hc_interrupt.str1.1
                0x000000004a04fd8a       0x8f drivers/usb/host/built-in.o
 .rodata.hc_reset.str1.1
                0x000000004a04fe19       0x40 drivers/usb/host/built-in.o
 .rodata.hexport_r.str1.1
                0x000000004a04fe59       0x30 lib/built-in.o
 .rodata.himport_r.str1.1
                0x000000004a04fe89       0x99 lib/built-in.o
 .rodata.image_info.str1.1
                0x000000004a04ff22       0xef cmd/built-in.o
 .rodata.image_print_contents.str1.1
                0x000000004a050011       0xd0 common/built-in.o
                                         0xd4 (size before relaxing)
 .rodata.image_setup_libfdt.str1.1
                0x000000004a0500e1       0xbb common/built-in.o
 .rodata.inflate.str1.1
                0x000000004a05019c      0x158 lib/built-in.o
 .rodata.inflate_fast.str1.1
                0x000000004a0502f4       0x50 lib/built-in.o
 .rodata.init_baud_rate.str1.1
                0x000000004a050344        0x9 common/built-in.o
 .rodata.init_env_boot_mmc.str1.1
                0x000000004a05034d       0x42 common/built-in.o
                                         0x49 (size before relaxing)
 .rodata.init_mmc_device.str1.1
                0x000000004a05038f       0x1a cmd/built-in.o
 .rodata.initcall_run_list.str1.1
                0x000000004a0503a9       0x31 lib/built-in.o
 .rodata.initr_env.str1.1
                0x000000004a0503da       0x20 common/built-in.o
                                         0x29 (size before relaxing)
 .rodata.initr_ethaddr.str1.1
                0x000000004a0503fa        0x8 common/built-in.o
 .rodata.initr_mmc.str1.1
                0x000000004a0503fa        0x8 common/built-in.o
 .rodata.initr_net.str1.1
                0x000000004a050402        0x8 common/built-in.o
 .rodata.insert_var_value_sub.str1.1
                0x000000004a05040a        0x6 common/built-in.o
 .rodata.ip_to_string.str1.1
                0x000000004a050410        0xc net/built-in.o
 .rodata.is_gpt_valid.str1.1
                0x000000004a05041c       0xc4 disk/built-in.o
 .rodata.label_boot.str1.1
                0x000000004a0504e0      0x15e cmd/built-in.o
                                        0x19c (size before relaxing)
 .rodata.label_print.str1.1
                0x000000004a05063e        0x8 cmd/built-in.o
 .rodata.list_sort.str1.1
                0x000000004a050646       0x34 lib/built-in.o
 .rodata.lists_bind_drivers.str1.1
                0x000000004a05067a       0x1a drivers/built-in.o
 .rodata.lists_bind_fdt.str1.1
                0x000000004a050694       0x3f drivers/built-in.o
                                         0x4a (size before relaxing)
 .rodata.lmb_alloc_base.str1.1
                0x000000004a0506d3       0x34 lib/built-in.o
 .rodata.load_serial.str1.1
                0x000000004a050707       0x65 cmd/built-in.o
 .rodata.load_serial_ymodem.str1.1
                0x000000004a05076c       0x31 cmd/built-in.o
                                         0x35 (size before relaxing)
 .rodata.main_loop.str1.1
                0x000000004a05079d       0x19 common/built-in.o
 .rodata.match.str1.1
                0x000000004a0507b6       0x18 lib/built-in.o
 .rodata.match_entry.str1.1
                0x000000004a0507ce       0x1b lib/built-in.o
 .rodata.match_string.str1.1
                0x000000004a0507ce       0x2c lib/built-in.o
 .rodata.mdio_list_devices.str1.1
                0x000000004a0507fa       0x12 common/built-in.o
                                         0x19 (size before relaxing)
 .rodata.mdio_phydev_for_ethname.str1.1
                0x000000004a05080c       0x1c common/built-in.o
 .rodata.mdio_register.str1.1
                0x000000004a050828       0x2c common/built-in.o
 .rodata.menu_get_choice.str1.1
                0x000000004a050854       0x1d common/built-in.o
                                         0x2a (size before relaxing)
 .rodata.miiphy_duplex.str1.1
                0x000000004a050871       0x4f common/built-in.o
 .rodata.miiphy_get_dev_by_name.str1.1
                0x000000004a0508c0       0x13 common/built-in.o
 .rodata.miiphy_listdev.str1.1
                0x000000004a0508d3       0x2a common/built-in.o
 .rodata.miiphy_set_current_dev.str1.1
                0x000000004a0508fd       0x14 common/built-in.o
 .rodata.miiphy_speed.str1.1
                0x000000004a050911       0x49 common/built-in.o
 .rodata.misc_init_r.str1.1
                0x000000004a05095a       0x58 board/sunxi/built-in.o
                                         0x5a (size before relaxing)
 .rodata.mmc_berase.str1.1
                0x000000004a0509b2       0x6f drivers/mmc/built-in.o
 .rodata.mmc_bread.str1.1
                0x000000004a050a21       0x47 drivers/mmc/built-in.o
 .rodata.mmc_bwrite.str1.1
                0x000000004a050a68       0x12 drivers/mmc/built-in.o
                                         0x59 (size before relaxing)
 .rodata.mmc_hwpart_config.str1.1
                0x000000004a050a7a      0x19f drivers/mmc/built-in.o
 .rodata.mmc_init.str1.1
                0x000000004a050c19       0x12 drivers/mmc/built-in.o
 .rodata.mmc_send_status.str1.1
                0x000000004a050c2b       0x32 drivers/mmc/built-in.o
 .rodata.mmc_set_mod_clk.str1.1
                0x000000004a050c5d       0x25 drivers/mmc/built-in.o
 .rodata.mmc_start_init.str1.1
                0x000000004a050c82       0x3f drivers/mmc/built-in.o
 .rodata.mmc_startup.str1.1
                0x000000004a050cc1       0x38 drivers/mmc/built-in.o
                                         0x3e (size before relaxing)
 .rodata.mod_mem.isra.0.str1.1
                0x000000004a050cf9       0x26 cmd/built-in.o
 .rodata.nanopi_get_board.str1.1
                0x000000004a050d1f       0x6d common/built-in.o
                                         0x73 (size before relaxing)
 .rodata.nanopi_read_gpio.str1.1
                0x000000004a050d8c       0x24 common/built-in.o
 .rodata.net_auto_load.str1.1
                0x000000004a050db0        0xd net/built-in.o
 .rodata.net_loop.str1.1
                0x000000004a050dbd       0xe5 net/built-in.o
                                         0xf7 (size before relaxing)
 .rodata.net_process_received_packet.str1.1
                0x000000004a050ea2       0x1d net/built-in.o
 .rodata.net_start_again.str1.1
                0x000000004a050ebf        0xe net/built-in.o
                                         0x15 (size before relaxing)
 .rodata.netboot_common.str1.1
                0x000000004a050ecd       0x16 cmd/built-in.o
                                         0x4a (size before relaxing)
 .rodata.nfs_handler.str1.1
                0x000000004a050ee3       0x56 net/built-in.o
 .rodata.nfs_lookup_reply.str1.1
                0x000000004a050f39       0x25 net/built-in.o
                                         0x27 (size before relaxing)
 .rodata.nfs_read_reply.isra.0.str1.1
                0x000000004a050f5e        0x4 net/built-in.o
 .rodata.nfs_readlink_reply.str1.1
                0x000000004a050f62        0x2 net/built-in.o
 .rodata.nfs_start.str1.1
                0x000000004a050f62       0x1e net/built-in.o
                                         0x1f (size before relaxing)
 .rodata.nfs_timeout_handler.str1.1
                0x000000004a050f80       0x2a net/built-in.o
 .rodata.ns16550_serial_ofdata_to_platdata.str1.1
                0x000000004a050faa       0x25 drivers/serial/built-in.o
 .rodata.of_bus_default_count_cells.str1.1
                0x000000004a050fcf        0xc common/built-in.o
 .rodata.ohci_create_int_queue.str1.1
                0x000000004a050fdb       0x80 drivers/usb/host/built-in.o
 .rodata.ohci_get_ohci_dev.str1.1
                0x000000004a05105b       0x36 drivers/usb/host/built-in.o
 .rodata.ohci_register.str1.1
                0x000000004a051091       0x10 drivers/usb/host/built-in.o
 .rodata.ohci_submit_control_msg.str1.1
                0x000000004a0510a1       0x3e drivers/usb/host/built-in.o
 .rodata.on_baudrate.str1.1
                0x000000004a0510df       0x42 drivers/serial/built-in.o
                                         0x74 (size before relaxing)
 .rodata.on_callbacks.str1.1
                0x000000004a051121       0xf4 common/built-in.o
 .rodata.on_console.str1.1
                0x000000004a051215       0x5e common/built-in.o
                                         0x27 (size before relaxing)
 .rodata.on_flags.str1.1
                0x000000004a051215       0x5b common/built-in.o
 .rodata.parse_integer.str1.1
                0x000000004a051270       0x17 cmd/built-in.o
 .rodata.parse_pxefile_top.str1.1
                0x000000004a051287       0x89 cmd/built-in.o
 .rodata.parse_sliteral.str1.1
                0x000000004a051310       0x1f cmd/built-in.o
 .rodata.parse_stream_outer.str1.1
                0x000000004a05132f       0x4d common/built-in.o
 .rodata.parse_string_outer.str1.1
                0x000000004a05137c        0x2 common/built-in.o
 .rodata.part_get_info_efi.str1.1
                0x000000004a05137c        0xa disk/built-in.o
 .rodata.part_get_info_extended.str1.1
                0x000000004a05137c        0xa disk/built-in.o
                                         0x11 (size before relaxing)
 .rodata.part_get_info_iso_verb.str1.1
                0x000000004a051386      0x1bf disk/built-in.o
                                        0x1c6 (size before relaxing)
 .rodata.part_print.str1.1
                0x000000004a051545       0x82 disk/built-in.o
                                         0x8b (size before relaxing)
 .rodata.part_print_dos.str1.1
                0x000000004a0515c7       0x2a disk/built-in.o
 .rodata.part_print_efi.str1.1
                0x000000004a0515f1       0xf9 disk/built-in.o
 .rodata.part_print_iso.str1.1
                0x000000004a0516ea       0x68 disk/built-in.o
 .rodata.part_set_generic_name.str1.1
                0x000000004a051752        0xa disk/built-in.o
 .rodata.phy_connect.str1.1
                0x000000004a05175c       0x23 drivers/net/phy/built-in.o
 .rodata.phy_connect_dev.str1.1
                0x000000004a05177f       0x2f drivers/net/phy/built-in.o
 .rodata.phy_reset.str1.1
                0x000000004a0517ae       0x15 drivers/net/phy/built-in.o
 .rodata.ping_start.str1.1
                0x000000004a0517c3       0x11 net/built-in.o
 .rodata.print_buffer.str1.1
                0x000000004a0517d4        0x8 lib/built-in.o
                                         0x19 (size before relaxing)
 .rodata.print_cpuinfo.str1.1
                0x000000004a0517dc       0x1e arch/arm/mach-sunxi/built-in.o
 .rodata.print_data.str1.1
                0x000000004a0517fa       0x27 cmd/built-in.o
                                         0x32 (size before relaxing)
 .rodata.print_freq.str1.1
                0x000000004a051821       0x1b lib/built-in.o
 .rodata.print_mmc_devices.str1.1
                0x000000004a05183c       0x12 drivers/mmc/built-in.o
                                         0x1c (size before relaxing)
 .rodata.print_num.str1.1
                0x000000004a05184e       0x10 cmd/built-in.o
 .rodata.print_partition_extended.str1.1
                0x000000004a05185e       0x83 disk/built-in.o
                                         0x84 (size before relaxing)
 .rodata.print_pre_console_buffer.str1.1
                0x000000004a0518e1        0x7 common/built-in.o
 .rodata.print_size.str1.1
                0x000000004a0518e1       0x15 lib/built-in.o
 .rodata.quantifier.str1.1
                0x000000004a0518f6       0x17 lib/built-in.o
 .rodata.read_allocated_block.str1.1
                0x000000004a05190d      0x240 fs/built-in.o
 .rodata.read_bootsectandvi.str1.1
                0x000000004a051b4d       0x1b fs/built-in.o
 .rodata.realloc.str1.1
                0x000000004a051b68       0x25 common/built-in.o
 .rodata.regex_callback.str1.1
                0x000000004a051b8d        0x5 common/built-in.o
                                         0x20 (size before relaxing)
 .rodata.regex_sub.str1.1
                0x000000004a051b92       0xbd cmd/built-in.o
 .rodata.run_list_real.str1.1
                0x000000004a051c4f       0x45 common/built-in.o
                                         0x4b (size before relaxing)
 .rodata.saveenv.str1.1
                0x000000004a051c94       0x3d common/built-in.o
                                         0x50 (size before relaxing)
 .rodata.serial_init.str1.1
                0x000000004a051cd1       0x17 drivers/serial/built-in.o
                                         0x2b (size before relaxing)
 .rodata.set_default_env.str1.1
                0x000000004a051ce8       0x5e common/built-in.o
                                         0x9b (size before relaxing)
 .rodata.set_local_var.str1.1
                0x000000004a051d46       0x59 common/built-in.o
 .rodata.set_working_fdt_addr.str1.1
                0x000000004a051d9f        0x8 cmd/built-in.o
 .rodata.setenv.str1.1
                0x000000004a051da7        0x7 cmd/built-in.o
 .rodata.setenv_hex.str1.1
                0x000000004a051dae        0x4 cmd/built-in.o
 .rodata.setup_env_boardtype.str1.1
                0x000000004a051dae        0x6 common/built-in.o
 .rodata.setup_environment.str1.1
                0x000000004a051dae       0x4b board/sunxi/built-in.o
 .rodata.setup_pgtables.str1.1
                0x000000004a051df9       0x2d arch/arm/cpu/armv8/built-in.o
 .rodata.show_board_info.str1.1
                0x000000004a051e26        0xb common/built-in.o
                                         0x11 (size before relaxing)
 .rodata.show_devices.str1.1
                0x000000004a051e31       0x21 drivers/built-in.o
                                         0x2a (size before relaxing)
 .rodata.show_dram_config.str1.1
                0x000000004a051e52        0x1 common/built-in.o
 .rodata.show_regs.str1.1
                0x000000004a051e52       0x39 arch/arm/lib/built-in.o
                                         0x3b (size before relaxing)
 .rodata.simple_bus_post_bind.str1.1
                0x000000004a051e8b        0x7 drivers/built-in.o
 .rodata.smbios_write_type0.str1.1
                0x000000004a051e8b       0x22 lib/built-in.o
                                         0x29 (size before relaxing)
 .rodata.smbios_write_type1.str1.1
                0x000000004a051ead        0x8 lib/built-in.o
 .rodata.smbios_write_type2.str1.1
                0x000000004a051ead       0x22 lib/built-in.o
                                          0x6 (size before relaxing)
 .rodata.smbios_write_type3.str1.1
                0x000000004a051ead        0x1 lib/built-in.o
 .rodata.smbios_write_type4.str1.1
                0x000000004a051ead        0x8 lib/built-in.o
 .rodata.sohci_submit_job.str1.1
                0x000000004a051ead       0xa6 drivers/usb/host/built-in.o
 .rodata.source.str1.1
                0x000000004a051f53       0xfe cmd/built-in.o
                                        0x114 (size before relaxing)
 .rodata.split_block.str1.1
                0x000000004a052051       0x74 arch/arm/cpu/armv8/built-in.o
 .rodata.stdio_add_devices.str1.1
                0x000000004a0520c5       0x1f common/built-in.o
                                         0x26 (size before relaxing)
 .rodata.stdio_deregister_dev.str1.1
                0x000000004a0520e4        0x8 common/built-in.o
 .rodata.stdio_print_current_devices.str1.1
                0x000000004a0520ec       0x70 common/built-in.o
                                         0x74 (size before relaxing)
 .rodata.store_char_in_data.str1.1
                0x000000004a05215c       0x1f lib/built-in.o
 .rodata.str1.1
                0x000000004a05217b     0x30d9 cmd/built-in.o
                                       0x33a7 (size before relaxing)
 .rodata.str1.1
                0x000000004a055254      0x75b common/built-in.o
                                        0x7e0 (size before relaxing)
 .rodata.str1.1
                0x000000004a0559af       0x1f disk/built-in.o
                                         0x22 (size before relaxing)
 .rodata.str1.1
                0x000000004a0559ce       0x4a drivers/built-in.o
                                         0x5e (size before relaxing)
 .rodata.str1.1
                0x000000004a055a18      0x1ff drivers/gpio/built-in.o
                                        0x219 (size before relaxing)
 .rodata.str1.1
                0x000000004a055c17        0x4 drivers/mmc/built-in.o
 .rodata.str1.1
                0x000000004a055c17       0x5b drivers/net/built-in.o
 .rodata.str1.1
                0x000000004a055c72       0x5d drivers/net/phy/built-in.o
                                         0x76 (size before relaxing)
 .rodata.str1.1
                0x000000004a055ccf       0xb0 drivers/serial/built-in.o
                                         0xc0 (size before relaxing)
 .rodata.str1.1
                0x000000004a055d7f      0x768 drivers/usb/host/built-in.o
                                        0x76c (size before relaxing)
 .rodata.str1.1
                0x000000004a0564e7       0x11 fs/built-in.o
                                         0x15 (size before relaxing)
 .rodata.str1.1
                0x000000004a0564f8      0x568 lib/built-in.o
                                        0x569 (size before relaxing)
 .rodata.str1.1
                0x000000004a056a60        0x6 net/built-in.o
                                         0x3e (size before relaxing)
 .rodata.str1.1
                0x000000004a056a66       0xdc test/dm/built-in.o
                                         0xe2 (size before relaxing)
 .rodata.string.str1.1
                0x000000004a056b42        0x7 lib/built-in.o
 .rodata.submit_common_msg.str1.1
                0x000000004a056b49       0x72 drivers/usb/host/built-in.o
 .rodata.substitute.str1.1
                0x000000004a056bbb       0x28 cmd/built-in.o
 .rodata.sun8i_emac_eth_ofdata_to_platdata.str1.1
                0x000000004a056be3      0x128 drivers/net/built-in.o
                                        0x135 (size before relaxing)
 .rodata.sun8i_emac_eth_recv.str1.1
                0x000000004a056d0b       0x25 drivers/net/built-in.o
 .rodata.sun8i_emac_eth_start.str1.1
                0x000000004a056d30        0xd drivers/net/built-in.o
 .rodata.sunxi_mmc_getcd_gpio.str1.1
                0x000000004a056d3d        0x4 drivers/mmc/built-in.o
                                          0x5 (size before relaxing)
 .rodata.sunxi_mmc_init.str1.1
                0x000000004a056d41       0x29 drivers/mmc/built-in.o
 .rodata.sunxi_usb_phy_probe.str1.1
                0x000000004a056d6a       0x21 arch/arm/mach-sunxi/built-in.o
                                         0x22 (size before relaxing)
 .rodata.syntax_err.str1.1
                0x000000004a056d8b        0xe common/built-in.o
 .rodata.td_fill.isra.2.str1.1
                0x000000004a056d99       0x17 drivers/usb/host/built-in.o
 .rodata.test_block_type.str1.1
                0x000000004a056db0        0xa disk/built-in.o
 .rodata.tftp_handler.str1.1
                0x000000004a056dba       0x72 net/built-in.o
                                         0x80 (size before relaxing)
 .rodata.tftp_send.str1.1
                0x000000004a056e2c       0x36 net/built-in.o
                                         0x42 (size before relaxing)
 .rodata.tftp_start.str1.1
                0x000000004a056e62      0x156 net/built-in.o
                                        0x181 (size before relaxing)
 .rodata.tftp_timeout_handler.str1.1
                0x000000004a056fb8       0x2a net/built-in.o
                                         0x2d (size before relaxing)
 .rodata.u_boot_hush_start.str1.1
                0x000000004a056fe2       0x12 common/built-in.o
 .rodata.uclass_resolve_seq.str1.1
                0x000000004a056ff4       0x27 drivers/built-in.o
 .rodata.usb_child_post_bind.str1.1
                0x000000004a05701b       0x25 drivers/usb/host/built-in.o
 .rodata.usb_display_class_sub.str1.1
                0x000000004a057040       0xb6 cmd/built-in.o
                                         0xbc (size before relaxing)
 .rodata.usb_display_config.str1.1
                0x000000004a0570f6      0x10d cmd/built-in.o
                                        0x11a (size before relaxing)
 .rodata.usb_display_desc.part.1.str1.1
                0x000000004a057203       0xac cmd/built-in.o
 .rodata.usb_display_string.str1.1
                0x000000004a0572af        0xd cmd/built-in.o
 .rodata.usb_find_usb2_hub_address_port.str1.1
                0x000000004a0572bc       0x36 common/built-in.o
 .rodata.usb_get_class_desc.str1.1
                0x000000004a0572f2       0x64 cmd/built-in.o
                                         0x65 (size before relaxing)
 .rodata.usb_get_configuration_len.str1.1
                0x000000004a057356       0x58 common/built-in.o
 .rodata.usb_hub_configure.str1.1
                0x000000004a0573ae       0x80 common/built-in.o
 .rodata.usb_hub_port_connect_change.str1.1
                0x000000004a05742e       0x18 common/built-in.o
 .rodata.usb_init.str1.1
                0x000000004a057446       0x7e drivers/usb/host/built-in.o
 .rodata.usb_kbd_probe.str1.1
                0x000000004a0574c4       0x5c common/built-in.o
 .rodata.usb_kbd_remove.str1.1
                0x000000004a057520       0x1b common/built-in.o
                                         0x21 (size before relaxing)
 .rodata.usb_mass_storage_probe.str1.1
                0x000000004a05753b       0x2d common/built-in.o
 .rodata.usb_scan_bus.isra.1.str1.1
                0x000000004a057568       0x4d drivers/usb/host/built-in.o
                                         0x5f (size before relaxing)
 .rodata.usb_scan_device.str1.1
                0x000000004a0575b5       0x2a drivers/usb/host/built-in.o
 .rodata.usb_select_config.str1.1
                0x000000004a0575df      0x220 common/built-in.o
 .rodata.usb_set_interface.str1.1
                0x000000004a0577ff       0x1f common/built-in.o
 .rodata.usb_setup_device.str1.1
                0x000000004a05781e       0x91 common/built-in.o
 .rodata.usb_show_tree_graph.str1.1
                0x000000004a0578af       0x2f cmd/built-in.o
                                         0x3a (size before relaxing)
 .rodata.usb_stor_CBI_get_status.isra.2.str1.1
                0x000000004a0578de       0x1f common/built-in.o
 .rodata.usb_stor_CB_transport.str1.1
                0x000000004a0578fd       0x6e common/built-in.o
 .rodata.usb_stor_get_info.str1.1
                0x000000004a05796b       0x5d common/built-in.o
 .rodata.usb_stor_info.str1.1
                0x000000004a0579c8       0x32 common/built-in.o
                                         0x40 (size before relaxing)
 .rodata.usb_stor_scan.str1.1
                0x000000004a0579fa       0x48 common/built-in.o
 .rodata.usb_storage_probe.str1.1
                0x000000004a057a42       0x5c common/built-in.o
 .rodata.uuid_bin_to_str.str1.1
                0x000000004a057a9e        0x5 lib/built-in.o
 .rodata.valid_elf_image.str1.1
                0x000000004a057a9e       0x52 cmd/built-in.o
 .rodata.validate_gpt_entries.str1.1
                0x000000004a057af0       0x40 disk/built-in.o
 .rodata.validate_gpt_header.str1.1
                0x000000004a057b30       0xe1 disk/built-in.o
 .rodata.var_complete.str1.1
                0x000000004a057c11        0x1 common/built-in.o
 .rodata.write_smbios_table.str1.1
                0x000000004a057c11        0xb lib/built-in.o
 .rodata.xmalloc.str1.1
                0x000000004a057c1c       0x1e common/built-in.o
 .rodata.xyzModem_error.str1.1
                0x000000004a057c3a        0xe common/built-in.o
 .rodata.xyzModem_stream_close.str1.1
                0x000000004a057c48       0x47 common/built-in.o
                                         0x4b (size before relaxing)
 .rodata.xyzModem_stream_open.str1.1
                0x000000004a057c8f        0x2 common/built-in.o
 .rodata.zunzip.str1.1
                0x000000004a057c8f       0x47 lib/built-in.o

.hash           0x000000004a057cd8       0x18
 .hash          0x000000004a057cd8       0x18 arch/arm/cpu/armv8/start.o
                0x000000004a057cf0                . = ALIGN (0x8)

.data           0x000000004a057cf0     0x2b68
 *(.data*)
 .data.mem_map  0x000000004a057cf0        0x8 arch/arm/mach-sunxi/built-in.o
                0x000000004a057cf0                mem_map
 .data.sunxi_mem_map
                0x000000004a057cf8       0x60 arch/arm/mach-sunxi/built-in.o
 .data.sunxi_usb_phy
                0x000000004a057d58       0x50 arch/arm/mach-sunxi/built-in.o
 .data.bootm_help_text
                0x000000004a057da8      0x4cf cmd/built-in.o
 *fill*         0x000000004a058277        0x1 
 .data.cmd_bootm_sub
                0x000000004a058278      0x1b0 cmd/built-in.o
 .data.source_help_text
                0x000000004a058428       0xac cmd/built-in.o
 *fill*         0x000000004a0584d4        0x4 
 .data.bootefi_device_obj
                0x000000004a0584d8       0x58 cmd/built-in.o
 .data.bootefi_device_path
                0x000000004a058530       0x88 cmd/built-in.o
 .data.bootefi_help_text
                0x000000004a0585b8       0xbf cmd/built-in.o
 *fill*         0x000000004a058677        0x1 
 .data.bootefi_image_path
                0x000000004a058678       0x88 cmd/built-in.o
 .data.loaded_image_info
                0x000000004a058700       0xa0 cmd/built-in.o
 .data.loaded_image_info_obj
                0x000000004a0587a0       0x58 cmd/built-in.o
 .data.booti_help_text
                0x000000004a0587f8      0x1e1 cmd/built-in.o
 *fill*         0x000000004a0589d9        0x7 
 .data.fdt_help_text
                0x000000004a0589e0      0x649 cmd/built-in.o
 *fill*         0x000000004a059029        0x7 
 .data.root.7169
                0x000000004a059030        0x2 cmd/built-in.o
 *fill*         0x000000004a059032        0x6 
 .data.tabs.7254
                0x000000004a059038       0x21 cmd/built-in.o
 *fill*         0x000000004a059059        0x3 
 .data.do_echo  0x000000004a05905c        0x4 cmd/built-in.o
 .data.dp_last_length
                0x000000004a059060        0x8 cmd/built-in.o
 .data.cmd_mmc  0x000000004a059068      0x1e0 cmd/built-in.o
 .data.curr_device
                0x000000004a059248        0x4 cmd/built-in.o
 *fill*         0x000000004a05924c        0x4 
 .data.cmd_pxe_sub
                0x000000004a059250       0x60 cmd/built-in.o
 .data.pxe_default_paths
                0x000000004a0592b0       0x20 cmd/built-in.o
                0x000000004a0592b0                pxe_default_paths
 .data.usb_stor_curr_dev
                0x000000004a0592d0        0x4 cmd/built-in.o
 *fill*         0x000000004a0592d4        0x4 
 .data.imgextract_help_text
                0x000000004a0592d8       0xb2 cmd/built-in.o
 *fill*         0x000000004a05938a        0x6 
 .data.cmd_env_sub
                0x000000004a059390      0x1e0 cmd/built-in.o
 .data.env_help_text
                0x000000004a059570      0x24f cmd/built-in.o
 *fill*         0x000000004a0597bf        0x1 
 .data.env_id   0x000000004a0597c0        0x4 cmd/built-in.o
 *fill*         0x000000004a0597c4        0x4 
 .data.hash_algo
                0x000000004a0597c8       0xa8 common/built-in.o
 .data.reserved_list
                0x000000004a059870      0x108 common/built-in.o
 .data.board    0x000000004a059978       0x80 common/built-in.o
 .data.init_sequence_r
                0x000000004a0599f8       0xf0 common/built-in.o
 .data.first_call
                0x000000004a059ae8        0x8 common/built-in.o
 .data.env_name_spec
                0x000000004a059af0        0x8 common/built-in.o
                0x000000004a059af0                env_name_spec
 .data.of_busses
                0x000000004a059af8       0x30 common/built-in.o
 .data.usb_scan_list
                0x000000004a059b28       0x10 common/built-in.o
 .data.env_htab
                0x000000004a059b38       0x18 common/built-in.o
                0x000000004a059b38                env_htab
 .data.av_      0x000000004a059b50      0x810 common/built-in.o
 .data.sbrk_base
                0x000000004a05a360        0x8 common/built-in.o
 .data.trim_threshold
                0x000000004a05a368        0x8 common/built-in.o
 .data.load_addr
                0x000000004a05a370        0x8 common/built-in.o
                0x000000004a05a370                load_addr
 .data.stdio_names
                0x000000004a05a378       0x18 common/built-in.o
                0x000000004a05a378                stdio_names
 .data.hist_cur
                0x000000004a05a390        0x4 common/built-in.o
 *fill*         0x000000004a05a394        0x4 
 .data.system_guid
                0x000000004a05a398       0x10 disk/built-in.o
 .data.cur_dev_num
                0x000000004a05a3a8        0x4 drivers/mmc/built-in.o
 *fill*         0x000000004a05a3ac        0x4 
 .data.genphy_driver
                0x000000004a05a3b0       0x58 drivers/net/phy/built-in.o
 .data.phy_drivers
                0x000000004a05a408       0x10 drivers/net/phy/built-in.o
 .data.ohci_usb_ops
                0x000000004a05a418       0x40 drivers/usb/host/built-in.o
                0x000000004a05a418                ohci_usb_ops
 .data.root_hub_config_des
                0x000000004a05a458       0x19 drivers/usb/host/built-in.o
 *fill*         0x000000004a05a471        0x7 
 .data.root_hub_dev_des
                0x000000004a05a478       0x12 drivers/usb/host/built-in.o
 *fill*         0x000000004a05a48a        0x6 
 .data.root_hub_str_index0
                0x000000004a05a490        0x4 drivers/usb/host/built-in.o
 *fill*         0x000000004a05a494        0x4 
 .data.root_hub_str_index1
                0x000000004a05a498       0x20 drivers/usb/host/built-in.o
 .data.descriptor
                0x000000004a05a4b8       0x38 drivers/usb/host/built-in.o
 .data.ehci_usb_ops
                0x000000004a05a4f0       0x40 drivers/usb/host/built-in.o
                0x000000004a05a4f0                ehci_usb_ops
 .data.fstypes  0x000000004a05a530      0x108 fs/built-in.o
 .data.ext4fs_indir1_blkno
                0x000000004a05a638        0x4 fs/built-in.o
                0x000000004a05a638                ext4fs_indir1_blkno
 .data.ext4fs_indir2_blkno
                0x000000004a05a63c        0x4 fs/built-in.o
                0x000000004a05a63c                ext4fs_indir2_blkno
 .data.ext4fs_indir3_blkno
                0x000000004a05a640        0x4 fs/built-in.o
                0x000000004a05a640                ext4fs_indir3_blkno
 *fill*         0x000000004a05a644        0x4 
 .data.efi_event
                0x000000004a05a648       0x30 lib/built-in.o
 .data.efi_obj_list
                0x000000004a05a678       0x10 lib/built-in.o
                0x000000004a05a678                efi_obj_list
 .data.loaded_image_info_obj.7936
                0x000000004a05a688       0x58 lib/built-in.o
 .data.efi_runtime_mmio
                0x000000004a05a6e0       0x10 lib/built-in.o
                0x000000004a05a6e0                efi_runtime_mmio
 .data.efi_con_mode
                0x000000004a05a6f0       0x18 lib/built-in.o
 .data.efi_cout_modes
                0x000000004a05a708       0x48 lib/built-in.o
 .data.efi_mem  0x000000004a05a750       0x10 lib/built-in.o
                0x000000004a05a750                efi_mem
 .data.sha256_padding
                0x000000004a05a760       0x40 lib/built-in.o
 .data.first_call.7619
                0x000000004a05a7a0        0x4 net/built-in.o
 .data.net_native_vlan
                0x000000004a05a7a4        0x2 net/built-in.o
                0x000000004a05a7a4                net_native_vlan
 .data.net_our_vlan
                0x000000004a05a7a6        0x2 net/built-in.o
                0x000000004a05a7a6                net_our_vlan
 .data.nfs_offset
                0x000000004a05a7a8        0x4 net/built-in.o
 .data.supported_nfs_versions
                0x000000004a05a7ac        0x1 net/built-in.o
 *fill*         0x000000004a05a7ad        0x1 
 .data.tftp_block_size
                0x000000004a05a7ae        0x2 net/built-in.o
 .data.tftp_block_size_option
                0x000000004a05a7b0        0x2 net/built-in.o
 *fill*         0x000000004a05a7b2        0x2 
 .data.tftp_timeout_count_max
                0x000000004a05a7b4        0x4 net/built-in.o
                0x000000004a05a7b4                tftp_timeout_count_max
 .data.timeout_count_max
                0x000000004a05a7b8        0x4 net/built-in.o
 *fill*         0x000000004a05a7bc        0x4 
 .data.timeout_ms
                0x000000004a05a7c0        0x8 net/built-in.o
 .data.test_commands
                0x000000004a05a7c8       0x90 test/dm/built-in.o

.got            0x000000004a05a858        0x8
 .got           0x000000004a05a858        0x8 arch/arm/cpu/armv8/start.o
                0x000000004a05a858                _GLOBAL_OFFSET_TABLE_

.got.plt        0x000000004a05a860       0x18
 .got.plt       0x000000004a05a860       0x18 arch/arm/cpu/armv8/start.o

.__efi_runtime_rel_start
                0x000000004a05a878        0x0
 .__efi_runtime_rel_start
                0x000000004a05a878        0x0 arch/arm/lib/built-in.o

.__efi_runtime_rel_stop
                0x000000004a05a878        0x0
 .__efi_runtime_rel_stop
                0x000000004a05a878        0x0 arch/arm/lib/built-in.o

.__efi_runtime_start
                0x000000004a05a878        0x0
 .__efi_runtime_start
                0x000000004a05a878        0x0 arch/arm/lib/built-in.o

.__efi_runtime_stop
                0x000000004a05a878        0x0
 .__efi_runtime_stop
                0x000000004a05a878        0x0 arch/arm/lib/built-in.o
                0x000000004a05a878                . = ALIGN (0x8)
                0x000000004a05a878                . = .
                0x000000004a05a878                . = ALIGN (0x8)

.u_boot_list    0x000000004a05a878     0x1a60
 *(SORT(.u_boot_list*))
 .u_boot_list_2_blk_driver_1
                0x000000004a05a878        0x0 drivers/built-in.o
 .u_boot_list_2_blk_driver_2_mmc
                0x000000004a05a878       0x28 drivers/mmc/built-in.o
                0x000000004a05a878                _u_boot_list_2_blk_driver_2_mmc
 .u_boot_list_2_blk_driver_2_usb
                0x000000004a05a8a0       0x28 common/built-in.o
                0x000000004a05a8a0                _u_boot_list_2_blk_driver_2_usb
 .u_boot_list_2_blk_driver_3
                0x000000004a05a8c8        0x0 drivers/built-in.o
 .u_boot_list_2_cmd_1
                0x000000004a05a8c8        0x0 cmd/built-in.o
 .u_boot_list_2_cmd_1
                0x000000004a05a8c8        0x0 common/built-in.o
 .u_boot_list_2_cmd_2_base
                0x000000004a05a8c8       0x30 cmd/built-in.o
                0x000000004a05a8c8                _u_boot_list_2_cmd_2_base
 .u_boot_list_2_cmd_2_bdinfo
                0x000000004a05a8f8       0x30 cmd/built-in.o
                0x000000004a05a8f8                _u_boot_list_2_cmd_2_bdinfo
 .u_boot_list_2_cmd_2_boot
                0x000000004a05a928       0x30 cmd/built-in.o
                0x000000004a05a928                _u_boot_list_2_cmd_2_boot
 .u_boot_list_2_cmd_2_bootd
                0x000000004a05a958       0x30 cmd/built-in.o
                0x000000004a05a958                _u_boot_list_2_cmd_2_bootd
 .u_boot_list_2_cmd_2_bootefi
                0x000000004a05a988       0x30 cmd/built-in.o
                0x000000004a05a988                _u_boot_list_2_cmd_2_bootefi
 .u_boot_list_2_cmd_2_bootelf
                0x000000004a05a9b8       0x30 cmd/built-in.o
                0x000000004a05a9b8                _u_boot_list_2_cmd_2_bootelf
 .u_boot_list_2_cmd_2_booti
                0x000000004a05a9e8       0x30 cmd/built-in.o
                0x000000004a05a9e8                _u_boot_list_2_cmd_2_booti
 .u_boot_list_2_cmd_2_bootm
                0x000000004a05aa18       0x30 cmd/built-in.o
                0x000000004a05aa18                _u_boot_list_2_cmd_2_bootm
 .u_boot_list_2_cmd_2_bootp
                0x000000004a05aa48       0x30 cmd/built-in.o
                0x000000004a05aa48                _u_boot_list_2_cmd_2_bootp
 .u_boot_list_2_cmd_2_bootvx
                0x000000004a05aa78       0x30 cmd/built-in.o
                0x000000004a05aa78                _u_boot_list_2_cmd_2_bootvx
 .u_boot_list_2_cmd_2_cmp
                0x000000004a05aaa8       0x30 cmd/built-in.o
                0x000000004a05aaa8                _u_boot_list_2_cmd_2_cmp
 .u_boot_list_2_cmd_2_coninfo
                0x000000004a05aad8       0x30 cmd/built-in.o
                0x000000004a05aad8                _u_boot_list_2_cmd_2_coninfo
 .u_boot_list_2_cmd_2_cp
                0x000000004a05ab08       0x30 cmd/built-in.o
                0x000000004a05ab08                _u_boot_list_2_cmd_2_cp
 .u_boot_list_2_cmd_2_crc32
                0x000000004a05ab38       0x30 cmd/built-in.o
                0x000000004a05ab38                _u_boot_list_2_cmd_2_crc32
 .u_boot_list_2_cmd_2_dhcp
                0x000000004a05ab68       0x30 cmd/built-in.o
                0x000000004a05ab68                _u_boot_list_2_cmd_2_dhcp
 .u_boot_list_2_cmd_2_dm
                0x000000004a05ab98       0x30 test/dm/built-in.o
                0x000000004a05ab98                _u_boot_list_2_cmd_2_dm
 .u_boot_list_2_cmd_2_echo
                0x000000004a05abc8       0x30 cmd/built-in.o
                0x000000004a05abc8                _u_boot_list_2_cmd_2_echo
 .u_boot_list_2_cmd_2_editenv
                0x000000004a05abf8       0x30 cmd/built-in.o
                0x000000004a05abf8                _u_boot_list_2_cmd_2_editenv
 .u_boot_list_2_cmd_2_env
                0x000000004a05ac28       0x30 cmd/built-in.o
                0x000000004a05ac28                _u_boot_list_2_cmd_2_env
 .u_boot_list_2_cmd_2_exit
                0x000000004a05ac58       0x30 cmd/built-in.o
                0x000000004a05ac58                _u_boot_list_2_cmd_2_exit
 .u_boot_list_2_cmd_2_ext2load
                0x000000004a05ac88       0x30 cmd/built-in.o
                0x000000004a05ac88                _u_boot_list_2_cmd_2_ext2load
 .u_boot_list_2_cmd_2_ext2ls
                0x000000004a05acb8       0x30 cmd/built-in.o
                0x000000004a05acb8                _u_boot_list_2_cmd_2_ext2ls
 .u_boot_list_2_cmd_2_ext4load
                0x000000004a05ace8       0x30 cmd/built-in.o
                0x000000004a05ace8                _u_boot_list_2_cmd_2_ext4load
 .u_boot_list_2_cmd_2_ext4ls
                0x000000004a05ad18       0x30 cmd/built-in.o
                0x000000004a05ad18                _u_boot_list_2_cmd_2_ext4ls
 .u_boot_list_2_cmd_2_ext4size
                0x000000004a05ad48       0x30 cmd/built-in.o
                0x000000004a05ad48                _u_boot_list_2_cmd_2_ext4size
 .u_boot_list_2_cmd_2_false
                0x000000004a05ad78       0x30 cmd/built-in.o
                0x000000004a05ad78                _u_boot_list_2_cmd_2_false
 .u_boot_list_2_cmd_2_fatinfo
                0x000000004a05ada8       0x30 cmd/built-in.o
                0x000000004a05ada8                _u_boot_list_2_cmd_2_fatinfo
 .u_boot_list_2_cmd_2_fatload
                0x000000004a05add8       0x30 cmd/built-in.o
                0x000000004a05add8                _u_boot_list_2_cmd_2_fatload
 .u_boot_list_2_cmd_2_fatls
                0x000000004a05ae08       0x30 cmd/built-in.o
                0x000000004a05ae08                _u_boot_list_2_cmd_2_fatls
 .u_boot_list_2_cmd_2_fatsize
                0x000000004a05ae38       0x30 cmd/built-in.o
                0x000000004a05ae38                _u_boot_list_2_cmd_2_fatsize
 .u_boot_list_2_cmd_2_fatwrite
                0x000000004a05ae68       0x30 cmd/built-in.o
                0x000000004a05ae68                _u_boot_list_2_cmd_2_fatwrite
 .u_boot_list_2_cmd_2_fdt
                0x000000004a05ae98       0x30 cmd/built-in.o
                0x000000004a05ae98                _u_boot_list_2_cmd_2_fdt
 .u_boot_list_2_cmd_2_fstype
                0x000000004a05aec8       0x30 cmd/built-in.o
                0x000000004a05aec8                _u_boot_list_2_cmd_2_fstype
 .u_boot_list_2_cmd_2_go
                0x000000004a05aef8       0x30 cmd/built-in.o
                0x000000004a05aef8                _u_boot_list_2_cmd_2_go
 .u_boot_list_2_cmd_2_gpio
                0x000000004a05af28       0x30 cmd/built-in.o
                0x000000004a05af28                _u_boot_list_2_cmd_2_gpio
 .u_boot_list_2_cmd_2_help
                0x000000004a05af58       0x30 cmd/built-in.o
                0x000000004a05af58                _u_boot_list_2_cmd_2_help
 .u_boot_list_2_cmd_2_iminfo
                0x000000004a05af88       0x30 cmd/built-in.o
                0x000000004a05af88                _u_boot_list_2_cmd_2_iminfo
 .u_boot_list_2_cmd_2_imxtract
                0x000000004a05afb8       0x30 cmd/built-in.o
                0x000000004a05afb8                _u_boot_list_2_cmd_2_imxtract
 .u_boot_list_2_cmd_2_itest
                0x000000004a05afe8       0x30 cmd/built-in.o
                0x000000004a05afe8                _u_boot_list_2_cmd_2_itest
 .u_boot_list_2_cmd_2_load
                0x000000004a05b018       0x30 cmd/built-in.o
                0x000000004a05b018                _u_boot_list_2_cmd_2_load
 .u_boot_list_2_cmd_2_loadb
                0x000000004a05b048       0x30 cmd/built-in.o
                0x000000004a05b048                _u_boot_list_2_cmd_2_loadb
 .u_boot_list_2_cmd_2_loads
                0x000000004a05b078       0x30 cmd/built-in.o
                0x000000004a05b078                _u_boot_list_2_cmd_2_loads
 .u_boot_list_2_cmd_2_loadx
                0x000000004a05b0a8       0x30 cmd/built-in.o
                0x000000004a05b0a8                _u_boot_list_2_cmd_2_loadx
 .u_boot_list_2_cmd_2_loady
                0x000000004a05b0d8       0x30 cmd/built-in.o
                0x000000004a05b0d8                _u_boot_list_2_cmd_2_loady
 .u_boot_list_2_cmd_2_loop
                0x000000004a05b108       0x30 cmd/built-in.o
                0x000000004a05b108                _u_boot_list_2_cmd_2_loop
 .u_boot_list_2_cmd_2_ls
                0x000000004a05b138       0x30 cmd/built-in.o
                0x000000004a05b138                _u_boot_list_2_cmd_2_ls
 .u_boot_list_2_cmd_2_md
                0x000000004a05b168       0x30 cmd/built-in.o
                0x000000004a05b168                _u_boot_list_2_cmd_2_md
 .u_boot_list_2_cmd_2_mdio
                0x000000004a05b198       0x30 cmd/built-in.o
                0x000000004a05b198                _u_boot_list_2_cmd_2_mdio
 .u_boot_list_2_cmd_2_mii
                0x000000004a05b1c8       0x30 cmd/built-in.o
                0x000000004a05b1c8                _u_boot_list_2_cmd_2_mii
 .u_boot_list_2_cmd_2_mm
                0x000000004a05b1f8       0x30 cmd/built-in.o
                0x000000004a05b1f8                _u_boot_list_2_cmd_2_mm
 .u_boot_list_2_cmd_2_mmc
                0x000000004a05b228       0x30 cmd/built-in.o
                0x000000004a05b228                _u_boot_list_2_cmd_2_mmc
 .u_boot_list_2_cmd_2_mmcinfo
                0x000000004a05b258       0x30 cmd/built-in.o
                0x000000004a05b258                _u_boot_list_2_cmd_2_mmcinfo
 .u_boot_list_2_cmd_2_mw
                0x000000004a05b288       0x30 cmd/built-in.o
                0x000000004a05b288                _u_boot_list_2_cmd_2_mw
 .u_boot_list_2_cmd_2_nfs
                0x000000004a05b2b8       0x30 cmd/built-in.o
                0x000000004a05b2b8                _u_boot_list_2_cmd_2_nfs
 .u_boot_list_2_cmd_2_nm
                0x000000004a05b2e8       0x30 cmd/built-in.o
                0x000000004a05b2e8                _u_boot_list_2_cmd_2_nm
 .u_boot_list_2_cmd_2_part
                0x000000004a05b318       0x30 cmd/built-in.o
                0x000000004a05b318                _u_boot_list_2_cmd_2_part
 .u_boot_list_2_cmd_2_ping
                0x000000004a05b348       0x30 cmd/built-in.o
                0x000000004a05b348                _u_boot_list_2_cmd_2_ping
 .u_boot_list_2_cmd_2_printenv
                0x000000004a05b378       0x30 cmd/built-in.o
                0x000000004a05b378                _u_boot_list_2_cmd_2_printenv
 .u_boot_list_2_cmd_2_pxe
                0x000000004a05b3a8       0x30 cmd/built-in.o
                0x000000004a05b3a8                _u_boot_list_2_cmd_2_pxe
 .u_boot_list_2_cmd_2_question_mark
                0x000000004a05b3d8       0x30 cmd/built-in.o
                0x000000004a05b3d8                _u_boot_list_2_cmd_2_question_mark
 .u_boot_list_2_cmd_2_reset
                0x000000004a05b408       0x30 cmd/built-in.o
                0x000000004a05b408                _u_boot_list_2_cmd_2_reset
 .u_boot_list_2_cmd_2_run
                0x000000004a05b438       0x30 cmd/built-in.o
                0x000000004a05b438                _u_boot_list_2_cmd_2_run
 .u_boot_list_2_cmd_2_save
                0x000000004a05b468       0x30 cmd/built-in.o
                0x000000004a05b468                _u_boot_list_2_cmd_2_save
 .u_boot_list_2_cmd_2_saveenv
                0x000000004a05b498       0x30 cmd/built-in.o
                0x000000004a05b498                _u_boot_list_2_cmd_2_saveenv
 .u_boot_list_2_cmd_2_setenv
                0x000000004a05b4c8       0x30 cmd/built-in.o
                0x000000004a05b4c8                _u_boot_list_2_cmd_2_setenv
 .u_boot_list_2_cmd_2_setexpr
                0x000000004a05b4f8       0x30 cmd/built-in.o
                0x000000004a05b4f8                _u_boot_list_2_cmd_2_setexpr
 .u_boot_list_2_cmd_2_showvar
                0x000000004a05b528       0x30 common/built-in.o
                0x000000004a05b528                _u_boot_list_2_cmd_2_showvar
 .u_boot_list_2_cmd_2_size
                0x000000004a05b558       0x30 cmd/built-in.o
                0x000000004a05b558                _u_boot_list_2_cmd_2_size
 .u_boot_list_2_cmd_2_sleep
                0x000000004a05b588       0x30 cmd/built-in.o
                0x000000004a05b588                _u_boot_list_2_cmd_2_sleep
 .u_boot_list_2_cmd_2_source
                0x000000004a05b5b8       0x30 cmd/built-in.o
                0x000000004a05b5b8                _u_boot_list_2_cmd_2_source
 .u_boot_list_2_cmd_2_sysboot
                0x000000004a05b5e8       0x30 cmd/built-in.o
                0x000000004a05b5e8                _u_boot_list_2_cmd_2_sysboot
 .u_boot_list_2_cmd_2_test
                0x000000004a05b618       0x30 cmd/built-in.o
                0x000000004a05b618                _u_boot_list_2_cmd_2_test
 .u_boot_list_2_cmd_2_tftpboot
                0x000000004a05b648       0x30 cmd/built-in.o
                0x000000004a05b648                _u_boot_list_2_cmd_2_tftpboot
 .u_boot_list_2_cmd_2_true
                0x000000004a05b678       0x30 cmd/built-in.o
                0x000000004a05b678                _u_boot_list_2_cmd_2_true
 .u_boot_list_2_cmd_2_usb
                0x000000004a05b6a8       0x30 cmd/built-in.o
                0x000000004a05b6a8                _u_boot_list_2_cmd_2_usb
 .u_boot_list_2_cmd_2_usbboot
                0x000000004a05b6d8       0x30 cmd/built-in.o
                0x000000004a05b6d8                _u_boot_list_2_cmd_2_usbboot
 .u_boot_list_2_cmd_2_version
                0x000000004a05b708       0x30 cmd/built-in.o
                0x000000004a05b708                _u_boot_list_2_cmd_2_version
 .u_boot_list_2_cmd_3
                0x000000004a05b738        0x0 cmd/built-in.o
 .u_boot_list_2_cmd_3
                0x000000004a05b738        0x0 common/built-in.o
 .u_boot_list_2_driver_1
                0x000000004a05b738        0x0 drivers/built-in.o
 .u_boot_list_2_driver_2_ehci_sunxi
                0x000000004a05b738       0x78 drivers/usb/host/built-in.o
                0x000000004a05b738                _u_boot_list_2_driver_2_ehci_sunxi
 .u_boot_list_2_driver_2_eth_sun8i_emac
                0x000000004a05b7b0       0x78 drivers/net/built-in.o
                0x000000004a05b7b0                _u_boot_list_2_driver_2_eth_sun8i_emac
 .u_boot_list_2_driver_2_gpio_sunxi
                0x000000004a05b828       0x78 drivers/gpio/built-in.o
                0x000000004a05b828                _u_boot_list_2_driver_2_gpio_sunxi
 .u_boot_list_2_driver_2_ns16550_serial
                0x000000004a05b8a0       0x78 drivers/serial/built-in.o
                0x000000004a05b8a0                _u_boot_list_2_driver_2_ns16550_serial
 .u_boot_list_2_driver_2_root_driver
                0x000000004a05b918       0x78 drivers/built-in.o
                0x000000004a05b918                _u_boot_list_2_driver_2_root_driver
 .u_boot_list_2_driver_2_simple_bus_drv
                0x000000004a05b990       0x78 drivers/built-in.o
                0x000000004a05b990                _u_boot_list_2_driver_2_simple_bus_drv
 .u_boot_list_2_driver_2_usb_dev_generic_drv
                0x000000004a05ba08       0x78 drivers/usb/host/built-in.o
                0x000000004a05ba08                _u_boot_list_2_driver_2_usb_dev_generic_drv
 .u_boot_list_2_driver_2_usb_generic_hub
                0x000000004a05ba80       0x78 common/built-in.o
                0x000000004a05ba80                _u_boot_list_2_driver_2_usb_generic_hub
 .u_boot_list_2_driver_2_usb_kbd
                0x000000004a05baf8       0x78 common/built-in.o
                0x000000004a05baf8                _u_boot_list_2_driver_2_usb_kbd
 .u_boot_list_2_driver_2_usb_mass_storage
                0x000000004a05bb70       0x78 common/built-in.o
                0x000000004a05bb70                _u_boot_list_2_driver_2_usb_mass_storage
 .u_boot_list_2_driver_2_usb_ohci
                0x000000004a05bbe8       0x78 drivers/usb/host/built-in.o
                0x000000004a05bbe8                _u_boot_list_2_driver_2_usb_ohci
 .u_boot_list_2_driver_3
                0x000000004a05bc60        0x0 drivers/built-in.o
 .u_boot_list_2_driver_info_1
                0x000000004a05bc60        0x0 drivers/built-in.o
 .u_boot_list_2_driver_info_3
                0x000000004a05bc60        0x0 drivers/built-in.o
 .u_boot_list_2_env_clbk_1
                0x000000004a05bc60        0x0 common/built-in.o
 .u_boot_list_2_env_clbk_2_baudrate
                0x000000004a05bc60       0x10 drivers/serial/built-in.o
                0x000000004a05bc60                _u_boot_list_2_env_clbk_2_baudrate
 .u_boot_list_2_env_clbk_2_bootfile
                0x000000004a05bc70       0x10 net/built-in.o
                0x000000004a05bc70                _u_boot_list_2_env_clbk_2_bootfile
 .u_boot_list_2_env_clbk_2_callbacks
                0x000000004a05bc80       0x10 common/built-in.o
                0x000000004a05bc80                _u_boot_list_2_env_clbk_2_callbacks
 .u_boot_list_2_env_clbk_2_console
                0x000000004a05bc90       0x10 common/built-in.o
                0x000000004a05bc90                _u_boot_list_2_env_clbk_2_console
 .u_boot_list_2_env_clbk_2_ethaddr
                0x000000004a05bca0       0x10 net/built-in.o
                0x000000004a05bca0                _u_boot_list_2_env_clbk_2_ethaddr
 .u_boot_list_2_env_clbk_2_flags
                0x000000004a05bcb0       0x10 common/built-in.o
                0x000000004a05bcb0                _u_boot_list_2_env_clbk_2_flags
 .u_boot_list_2_env_clbk_2_gatewayip
                0x000000004a05bcc0       0x10 net/built-in.o
                0x000000004a05bcc0                _u_boot_list_2_env_clbk_2_gatewayip
 .u_boot_list_2_env_clbk_2_ipaddr
                0x000000004a05bcd0       0x10 net/built-in.o
                0x000000004a05bcd0                _u_boot_list_2_env_clbk_2_ipaddr
 .u_boot_list_2_env_clbk_2_loadaddr
                0x000000004a05bce0       0x10 common/built-in.o
                0x000000004a05bce0                _u_boot_list_2_env_clbk_2_loadaddr
 .u_boot_list_2_env_clbk_2_netmask
                0x000000004a05bcf0       0x10 net/built-in.o
                0x000000004a05bcf0                _u_boot_list_2_env_clbk_2_netmask
 .u_boot_list_2_env_clbk_2_nvlan
                0x000000004a05bd00       0x10 net/built-in.o
                0x000000004a05bd00                _u_boot_list_2_env_clbk_2_nvlan
 .u_boot_list_2_env_clbk_2_serverip
                0x000000004a05bd10       0x10 net/built-in.o
                0x000000004a05bd10                _u_boot_list_2_env_clbk_2_serverip
 .u_boot_list_2_env_clbk_2_vlan
                0x000000004a05bd20       0x10 net/built-in.o
                0x000000004a05bd20                _u_boot_list_2_env_clbk_2_vlan
 .u_boot_list_2_env_clbk_3
                0x000000004a05bd30        0x0 common/built-in.o
 .u_boot_list_2_fit_loadable_1
                0x000000004a05bd30        0x0 common/built-in.o
 .u_boot_list_2_fit_loadable_3
                0x000000004a05bd30        0x0 common/built-in.o
 .u_boot_list_2_part_driver_1
                0x000000004a05bd30        0x0 disk/built-in.o
 .u_boot_list_2_part_driver_2_a_efi
                0x000000004a05bd30       0x28 disk/built-in.o
                0x000000004a05bd30                _u_boot_list_2_part_driver_2_a_efi
 .u_boot_list_2_part_driver_2_dos
                0x000000004a05bd58       0x28 disk/built-in.o
                0x000000004a05bd58                _u_boot_list_2_part_driver_2_dos
 .u_boot_list_2_part_driver_2_iso
                0x000000004a05bd80       0x28 disk/built-in.o
                0x000000004a05bd80                _u_boot_list_2_part_driver_2_iso
 .u_boot_list_2_part_driver_3
                0x000000004a05bda8        0x0 disk/built-in.o
 .u_boot_list_2_uclass_1
                0x000000004a05bda8        0x0 drivers/built-in.o
 .u_boot_list_2_uclass_2_eth
                0x000000004a05bda8       0x80 net/built-in.o
                0x000000004a05bda8                _u_boot_list_2_uclass_2_eth
 .u_boot_list_2_uclass_2_gpio
                0x000000004a05be28       0x80 drivers/gpio/built-in.o
                0x000000004a05be28                _u_boot_list_2_uclass_2_gpio
 .u_boot_list_2_uclass_2_keyboard
                0x000000004a05bea8       0x80 drivers/built-in.o
                0x000000004a05bea8                _u_boot_list_2_uclass_2_keyboard
 .u_boot_list_2_uclass_2_root
                0x000000004a05bf28       0x80 drivers/built-in.o
                0x000000004a05bf28                _u_boot_list_2_uclass_2_root
 .u_boot_list_2_uclass_2_serial
                0x000000004a05bfa8       0x80 drivers/serial/built-in.o
                0x000000004a05bfa8                _u_boot_list_2_uclass_2_serial
 .u_boot_list_2_uclass_2_simple_bus
                0x000000004a05c028       0x80 drivers/built-in.o
                0x000000004a05c028                _u_boot_list_2_uclass_2_simple_bus
 .u_boot_list_2_uclass_2_usb
                0x000000004a05c0a8       0x80 drivers/usb/host/built-in.o
                0x000000004a05c0a8                _u_boot_list_2_uclass_2_usb
 .u_boot_list_2_uclass_2_usb_dev_generic
                0x000000004a05c128       0x80 drivers/usb/host/built-in.o
                0x000000004a05c128                _u_boot_list_2_uclass_2_usb_dev_generic
 .u_boot_list_2_uclass_2_usb_hub
                0x000000004a05c1a8       0x80 common/built-in.o
                0x000000004a05c1a8                _u_boot_list_2_uclass_2_usb_hub
 .u_boot_list_2_uclass_2_usb_mass_storage
                0x000000004a05c228       0x80 common/built-in.o
                0x000000004a05c228                _u_boot_list_2_uclass_2_usb_mass_storage
 .u_boot_list_2_uclass_3
                0x000000004a05c2a8        0x0 drivers/built-in.o
 .u_boot_list_2_usb_driver_entry_1
                0x000000004a05c2a8        0x0 drivers/usb/host/built-in.o
 .u_boot_list_2_usb_driver_entry_2_usb_generic_hub
                0x000000004a05c2a8       0x10 common/built-in.o
                0x000000004a05c2a8                _u_boot_list_2_usb_driver_entry_2_usb_generic_hub
 .u_boot_list_2_usb_driver_entry_2_usb_kbd
                0x000000004a05c2b8       0x10 common/built-in.o
                0x000000004a05c2b8                _u_boot_list_2_usb_driver_entry_2_usb_kbd
 .u_boot_list_2_usb_driver_entry_2_usb_mass_storage
                0x000000004a05c2c8       0x10 common/built-in.o
                0x000000004a05c2c8                _u_boot_list_2_usb_driver_entry_2_usb_mass_storage
 .u_boot_list_2_usb_driver_entry_3
                0x000000004a05c2d8        0x0 drivers/usb/host/built-in.o
                0x000000004a05c2d8                . = ALIGN (0x8)

.efi_runtime    0x000000004a05c2d8      0x218
                0x000000004a05c2d8                __efi_runtime_start = .
 *(efi_runtime_text)
 efi_runtime_text
                0x000000004a05c2d8       0xa8 arch/arm/cpu/armv8/built-in.o
                0x000000004a05c2d8                smc_call
                0x000000004a05c31c                psci_system_reset
                0x000000004a05c33c                psci_system_off
                0x000000004a05c35c                efi_reset_system
 efi_runtime_text
                0x000000004a05c380       0x28 lib/built-in.o
                0x000000004a05c384                efi_get_time
 *(efi_runtime_data)
 efi_runtime_data
                0x000000004a05c3a8      0x148 lib/built-in.o
                0x000000004a05c3a8                systab
                0x000000004a05c468                efi_runtime_services
                0x000000004a05c4f0                __efi_runtime_stop = .

.efi_runtime_rel
                0x000000004a05c4f0      0x1b0
                0x000000004a05c4f0                __efi_runtime_rel_start = .
 *(.relaefi_runtime_text)
 *(.relaefi_runtime_data)
 .relaefi_runtime_data
                0x000000004a05c4f0      0x1b0 arch/arm/cpu/armv8/start.o
                0x000000004a05c6a0                __efi_runtime_rel_stop = .
                0x000000004a05c6a0                . = ALIGN (0x8)

.image_copy_end
                0x000000004a05c6a0        0x0
 *(.__image_copy_end)
 .__image_copy_end
                0x000000004a05c6a0        0x0 arch/arm/lib/built-in.o
                0x000000004a05c6a0                . = ALIGN (0x8)

.rel_dyn_start  0x000000004a05c6a0        0x0
 *(.__rel_dyn_start)
 .__rel_dyn_start
                0x000000004a05c6a0        0x0 arch/arm/lib/built-in.o

.rela.dyn       0x000000004a05c6a0     0x8ee0
 *(.rela*)
 .rela.got      0x000000004a05c6a0        0x0 arch/arm/cpu/armv8/start.o
 .rela.plt      0x000000004a05c6a0        0x0 arch/arm/cpu/armv8/start.o
 .rela.ifunc    0x000000004a05c6a0        0x0 arch/arm/cpu/armv8/start.o
 .rela.text     0x000000004a05c6a0       0x90 arch/arm/cpu/armv8/start.o
 .rela.data.mem_map
                0x000000004a05c730       0x18 arch/arm/cpu/armv8/start.o
 .rela.rodata.op_table
                0x000000004a05c748      0x138 arch/arm/cpu/armv8/start.o
 .rela.rodata.desc_and_len_tbl
                0x000000004a05c880       0x90 arch/arm/cpu/armv8/start.o
 .rela.rodata.reg_0_5_desc_tbl
                0x000000004a05c910       0x90 arch/arm/cpu/armv8/start.o
 .rela.rodata.reg_0_desc_tbl
                0x000000004a05c9a0       0xf0 arch/arm/cpu/armv8/start.o
 .rela.rodata.reg_1_desc_tbl
                0x000000004a05ca90      0x180 arch/arm/cpu/armv8/start.o
 .rela.rodata.reg_2_desc_tbl
                0x000000004a05cc10       0x18 arch/arm/cpu/armv8/start.o
 .rela.rodata.reg_3_desc_tbl
                0x000000004a05cc28       0x48 arch/arm/cpu/armv8/start.o
 .rela.rodata.reg_4_desc_tbl
                0x000000004a05cc70      0x120 arch/arm/cpu/armv8/start.o
 .rela.rodata.reg_5_desc_tbl
                0x000000004a05cd90      0x120 arch/arm/cpu/armv8/start.o
 .rela.rodata.keywords
                0x000000004a05ceb0      0x1b0 arch/arm/cpu/armv8/start.o
 .rela.rodata.op_adv
                0x000000004a05d060      0x180 arch/arm/cpu/armv8/start.o
 .rela.rodata.CSWTCH.35
                0x000000004a05d1e0       0x78 arch/arm/cpu/armv8/start.o
 .rela.u_boot_list_2_cmd_2_go
                0x000000004a05d258       0x60 arch/arm/cpu/armv8/start.o
 .rela.u_boot_list_2_cmd_2_reset
                0x000000004a05d2b8       0x60 arch/arm/cpu/armv8/start.o
 .rela.data.cmd_bootm_sub
                0x000000004a05d318      0x288 arch/arm/cpu/armv8/start.o
 .rela.u_boot_list_2_cmd_2_boot
                0x000000004a05d5a0       0x60 arch/arm/cpu/armv8/start.o
 .rela.u_boot_list_2_cmd_2_bootd
                0x000000004a05d600       0x60 arch/arm/cpu/armv8/start.o
 .rela.u_boot_list_2_cmd_2_bootm
                0x000000004a05d660       0x60 arch/arm/cpu/armv8/start.o
 .rela.u_boot_list_2_cmd_2_iminfo
                0x000000004a05d6c0       0x60 arch/arm/cpu/armv8/start.o
 .rela.u_boot_list_2_cmd_2_help
                0x000000004a05d720       0x60 arch/arm/cpu/armv8/start.o
 .rela.u_boot_list_2_cmd_2_question_mark
                0x000000004a05d780       0x60 arch/arm/cpu/armv8/start.o
 .rela.u_boot_list_2_cmd_2_version
                0x000000004a05d7e0       0x60 arch/arm/cpu/armv8/start.o
 .rela.u_boot_list_2_cmd_2_source
                0x000000004a05d840       0x60 arch/arm/cpu/armv8/start.o
 .rela.u_boot_list_2_cmd_2_bdinfo
                0x000000004a05d8a0       0x60 arch/arm/cpu/armv8/start.o
 .rela.data.bootefi_device_obj
                0x000000004a05d900       0x48 arch/arm/cpu/armv8/start.o
 .rela.data.loaded_image_info
                0x000000004a05d948       0x30 arch/arm/cpu/armv8/start.o
 .rela.data.loaded_image_info_obj
                0x000000004a05d978       0x78 arch/arm/cpu/armv8/start.o
 .rela.u_boot_list_2_cmd_2_bootefi
                0x000000004a05d9f0       0x60 arch/arm/cpu/armv8/start.o
 .rela.u_boot_list_2_cmd_2_booti
                0x000000004a05da50       0x60 arch/arm/cpu/armv8/start.o
 .rela.u_boot_list_2_cmd_2_coninfo
                0x000000004a05dab0       0x60 arch/arm/cpu/armv8/start.o
 .rela.u_boot_list_2_cmd_2_echo
                0x000000004a05db10       0x60 arch/arm/cpu/armv8/start.o
 .rela.u_boot_list_2_cmd_2_bootelf
                0x000000004a05db70       0x60 arch/arm/cpu/armv8/start.o
 .rela.u_boot_list_2_cmd_2_bootvx
                0x000000004a05dbd0       0x60 arch/arm/cpu/armv8/start.o
 .rela.u_boot_list_2_cmd_2_exit
                0x000000004a05dc30       0x60 arch/arm/cpu/armv8/start.o
 .rela.u_boot_list_2_cmd_2_ext4load
                0x000000004a05dc90       0x60 arch/arm/cpu/armv8/start.o
 .rela.u_boot_list_2_cmd_2_ext4ls
                0x000000004a05dcf0       0x60 arch/arm/cpu/armv8/start.o
 .rela.u_boot_list_2_cmd_2_ext4size
                0x000000004a05dd50       0x60 arch/arm/cpu/armv8/start.o
 .rela.u_boot_list_2_cmd_2_ext2load
                0x000000004a05ddb0       0x60 arch/arm/cpu/armv8/start.o
 .rela.u_boot_list_2_cmd_2_ext2ls
                0x000000004a05de10       0x60 arch/arm/cpu/armv8/start.o
 .rela.u_boot_list_2_cmd_2_fatinfo
                0x000000004a05de70       0x60 arch/arm/cpu/armv8/start.o
 .rela.u_boot_list_2_cmd_2_fatload
                0x000000004a05ded0       0x60 arch/arm/cpu/armv8/start.o
 .rela.u_boot_list_2_cmd_2_fatls
                0x000000004a05df30       0x60 arch/arm/cpu/armv8/start.o
 .rela.u_boot_list_2_cmd_2_fatsize
                0x000000004a05df90       0x60 arch/arm/cpu/armv8/start.o
 .rela.u_boot_list_2_cmd_2_fatwrite
                0x000000004a05dff0       0x60 arch/arm/cpu/armv8/start.o
 .rela.u_boot_list_2_cmd_2_fdt
                0x000000004a05e050       0x60 arch/arm/cpu/armv8/start.o
 .rela.u_boot_list_2_cmd_2_fstype
                0x000000004a05e0b0       0x60 arch/arm/cpu/armv8/start.o
 .rela.u_boot_list_2_cmd_2_load
                0x000000004a05e110       0x60 arch/arm/cpu/armv8/start.o
 .rela.u_boot_list_2_cmd_2_ls
                0x000000004a05e170       0x60 arch/arm/cpu/armv8/start.o
 .rela.u_boot_list_2_cmd_2_save
                0x000000004a05e1d0       0x60 arch/arm/cpu/armv8/start.o
 .rela.u_boot_list_2_cmd_2_size
                0x000000004a05e230       0x60 arch/arm/cpu/armv8/start.o
 .rela.u_boot_list_2_cmd_2_gpio
                0x000000004a05e290       0x60 arch/arm/cpu/armv8/start.o
 .rela.u_boot_list_2_cmd_2_itest
                0x000000004a05e2f0       0x60 arch/arm/cpu/armv8/start.o
 .rela.u_boot_list_2_cmd_2_loadb
                0x000000004a05e350       0x60 arch/arm/cpu/armv8/start.o
 .rela.u_boot_list_2_cmd_2_loads
                0x000000004a05e3b0       0x60 arch/arm/cpu/armv8/start.o
 .rela.u_boot_list_2_cmd_2_loadx
                0x000000004a05e410       0x60 arch/arm/cpu/armv8/start.o
 .rela.u_boot_list_2_cmd_2_loady
                0x000000004a05e470       0x60 arch/arm/cpu/armv8/start.o
 .rela.u_boot_list_2_cmd_2_base
                0x000000004a05e4d0       0x60 arch/arm/cpu/armv8/start.o
 .rela.u_boot_list_2_cmd_2_cmp
                0x000000004a05e530       0x60 arch/arm/cpu/armv8/start.o
 .rela.u_boot_list_2_cmd_2_cp
                0x000000004a05e590       0x60 arch/arm/cpu/armv8/start.o
 .rela.u_boot_list_2_cmd_2_crc32
                0x000000004a05e5f0       0x60 arch/arm/cpu/armv8/start.o
 .rela.u_boot_list_2_cmd_2_loop
                0x000000004a05e650       0x60 arch/arm/cpu/armv8/start.o
 .rela.u_boot_list_2_cmd_2_md
                0x000000004a05e6b0       0x60 arch/arm/cpu/armv8/start.o
 .rela.u_boot_list_2_cmd_2_mm
                0x000000004a05e710       0x60 arch/arm/cpu/armv8/start.o
 .rela.u_boot_list_2_cmd_2_mw
                0x000000004a05e770       0x60 arch/arm/cpu/armv8/start.o
 .rela.u_boot_list_2_cmd_2_nm
                0x000000004a05e7d0       0x60 arch/arm/cpu/armv8/start.o
 .rela.u_boot_list_2_cmd_2_mii
                0x000000004a05e830       0x60 arch/arm/cpu/armv8/start.o
 .rela.u_boot_list_2_cmd_2_mdio
                0x000000004a05e890       0x60 arch/arm/cpu/armv8/start.o
 .rela.u_boot_list_2_cmd_2_sleep
                0x000000004a05e8f0       0x60 arch/arm/cpu/armv8/start.o
 .rela.data.cmd_mmc
                0x000000004a05e950      0x3c0 arch/arm/cpu/armv8/start.o
 .rela.u_boot_list_2_cmd_2_mmc
                0x000000004a05ed10       0x60 arch/arm/cpu/armv8/start.o
 .rela.u_boot_list_2_cmd_2_mmcinfo
                0x000000004a05ed70       0x60 arch/arm/cpu/armv8/start.o
 .rela.u_boot_list_2_cmd_2_bootp
                0x000000004a05edd0       0x60 arch/arm/cpu/armv8/start.o
 .rela.u_boot_list_2_cmd_2_dhcp
                0x000000004a05ee30       0x60 arch/arm/cpu/armv8/start.o
 .rela.u_boot_list_2_cmd_2_nfs
                0x000000004a05ee90       0x60 arch/arm/cpu/armv8/start.o
 .rela.u_boot_list_2_cmd_2_ping
                0x000000004a05eef0       0x60 arch/arm/cpu/armv8/start.o
 .rela.u_boot_list_2_cmd_2_tftpboot
                0x000000004a05ef50       0x60 arch/arm/cpu/armv8/start.o
 .rela.u_boot_list_2_cmd_2_part
                0x000000004a05efb0       0x60 arch/arm/cpu/armv8/start.o
 .rela.data.cmd_pxe_sub
                0x000000004a05f010       0xc0 arch/arm/cpu/armv8/start.o
 .rela.data.pxe_default_paths
                0x000000004a05f0d0       0x48 arch/arm/cpu/armv8/start.o
 .rela.u_boot_list_2_cmd_2_pxe
                0x000000004a05f118       0x60 arch/arm/cpu/armv8/start.o
 .rela.u_boot_list_2_cmd_2_sysboot
                0x000000004a05f178       0x60 arch/arm/cpu/armv8/start.o
 .rela.u_boot_list_2_cmd_2_setexpr
                0x000000004a05f1d8       0x60 arch/arm/cpu/armv8/start.o
 .rela.u_boot_list_2_cmd_2_false
                0x000000004a05f238       0x48 arch/arm/cpu/armv8/start.o
 .rela.u_boot_list_2_cmd_2_test
                0x000000004a05f280       0x60 arch/arm/cpu/armv8/start.o
 .rela.u_boot_list_2_cmd_2_true
                0x000000004a05f2e0       0x48 arch/arm/cpu/armv8/start.o
 .rela.u_boot_list_2_cmd_2_usb
                0x000000004a05f328       0x60 arch/arm/cpu/armv8/start.o
 .rela.u_boot_list_2_cmd_2_usbboot
                0x000000004a05f388       0x60 arch/arm/cpu/armv8/start.o
 .rela.u_boot_list_2_cmd_2_imxtract
                0x000000004a05f3e8       0x60 arch/arm/cpu/armv8/start.o
 .rela.data.cmd_env_sub
                0x000000004a05f448      0x3c0 arch/arm/cpu/armv8/start.o
 .rela.u_boot_list_2_cmd_2_editenv
                0x000000004a05f808       0x78 arch/arm/cpu/armv8/start.o
 .rela.u_boot_list_2_cmd_2_env
                0x000000004a05f880       0x60 arch/arm/cpu/armv8/start.o
 .rela.u_boot_list_2_cmd_2_printenv
                0x000000004a05f8e0       0x78 arch/arm/cpu/armv8/start.o
 .rela.u_boot_list_2_cmd_2_run
                0x000000004a05f958       0x78 arch/arm/cpu/armv8/start.o
 .rela.u_boot_list_2_cmd_2_saveenv
                0x000000004a05f9d0       0x60 arch/arm/cpu/armv8/start.o
 .rela.u_boot_list_2_cmd_2_setenv
                0x000000004a05fa30       0x78 arch/arm/cpu/armv8/start.o
 .rela.rodata.init_sequence_f
                0x000000004a05faa8      0x390 arch/arm/cpu/armv8/start.o
 .rela.rodata.boot_os
                0x000000004a05fe38       0xa8 arch/arm/cpu/armv8/start.o
 .rela.rodata.usb_hub_ids
                0x000000004a05fee0       0x18 arch/arm/cpu/armv8/start.o
 .rela.rodata.usb_mass_storage_ids
                0x000000004a05fef8       0x18 arch/arm/cpu/armv8/start.o
 .rela.rodata.usb_kbd_ids
                0x000000004a05ff10       0x18 arch/arm/cpu/armv8/start.o
 .rela.rodata.table_info
                0x000000004a05ff28        0x0 arch/arm/cpu/armv8/start.o
 .rela.rodata.uimage_arch
                0x000000004a05ff28      0x4e0 arch/arm/cpu/armv8/start.o
 .rela.rodata.uimage_comp
                0x000000004a060408      0x150 arch/arm/cpu/armv8/start.o
 .rela.rodata.uimage_os
                0x000000004a060558      0x1e0 arch/arm/cpu/armv8/start.o
 .rela.rodata.uimage_type
                0x000000004a060738      0x600 arch/arm/cpu/armv8/start.o
 .rela.rodata.CSWTCH.92
                0x000000004a060d38      0x288 arch/arm/cpu/armv8/start.o
 .rela.rodata.CSWTCH.24
                0x000000004a060fc0       0xc0 arch/arm/cpu/armv8/start.o
 .rela.data.hash_algo
                0x000000004a061080      0x168 arch/arm/cpu/armv8/start.o
 .rela.data.reserved_list
                0x000000004a0611e8      0x108 arch/arm/cpu/armv8/start.o
 .rela.u_boot_list_2_cmd_2_showvar
                0x000000004a0612f0       0x60 arch/arm/cpu/armv8/start.o
 .rela.data.init_sequence_r
                0x000000004a061350      0x2d0 arch/arm/cpu/armv8/start.o
 .rela.u_boot_list_2_env_clbk_2_callbacks
                0x000000004a061620       0x30 arch/arm/cpu/armv8/start.o
 .rela.u_boot_list_2_env_clbk_2_flags
                0x000000004a061650       0x30 arch/arm/cpu/armv8/start.o
 .rela.data.env_name_spec
                0x000000004a061680       0x18 arch/arm/cpu/armv8/start.o
 .rela.data.of_busses
                0x000000004a061698       0x78 arch/arm/cpu/armv8/start.o
 .rela.data.usb_scan_list
                0x000000004a061710       0x30 arch/arm/cpu/armv8/start.o
 .rela.u_boot_list_2_driver_2_usb_generic_hub
                0x000000004a061740       0x30 arch/arm/cpu/armv8/start.o
 .rela.u_boot_list_2_uclass_2_usb_hub
                0x000000004a061770       0x60 arch/arm/cpu/armv8/start.o
 .rela.u_boot_list_2_usb_driver_entry_2_usb_generic_hub
                0x000000004a0617d0       0x30 arch/arm/cpu/armv8/start.o
 .rela.u_boot_list_2_blk_driver_2_usb
                0x000000004a061800       0x30 arch/arm/cpu/armv8/start.o
 .rela.u_boot_list_2_driver_2_usb_mass_storage
                0x000000004a061830       0x48 arch/arm/cpu/armv8/start.o
 .rela.u_boot_list_2_uclass_2_usb_mass_storage
                0x000000004a061878       0x18 arch/arm/cpu/armv8/start.o
 .rela.u_boot_list_2_usb_driver_entry_2_usb_mass_storage
                0x000000004a061890       0x30 arch/arm/cpu/armv8/start.o
 .rela.u_boot_list_2_driver_2_usb_kbd
                0x000000004a0618c0       0x60 arch/arm/cpu/armv8/start.o
 .rela.u_boot_list_2_usb_driver_entry_2_usb_kbd
                0x000000004a061920       0x30 arch/arm/cpu/armv8/start.o
 .rela.data.env_htab
                0x000000004a061950       0x18 arch/arm/cpu/armv8/start.o
 .rela.u_boot_list_2_env_clbk_2_console
                0x000000004a061968       0x30 arch/arm/cpu/armv8/start.o
 .rela.data.av_
                0x000000004a061998     0x1800 arch/arm/cpu/armv8/start.o
 .rela.u_boot_list_2_env_clbk_2_loadaddr
                0x000000004a063198       0x30 arch/arm/cpu/armv8/start.o
 .rela.data.stdio_names
                0x000000004a0631c8       0x48 arch/arm/cpu/armv8/start.o
 .rela.rodata.CSWTCH.43
                0x000000004a063210       0xc0 arch/arm/cpu/armv8/start.o
 .rela.u_boot_list_2_part_driver_2_dos
                0x000000004a0632d0       0x60 arch/arm/cpu/armv8/start.o
 .rela.u_boot_list_2_part_driver_2_iso
                0x000000004a063330       0x60 arch/arm/cpu/armv8/start.o
 .rela.u_boot_list_2_part_driver_2_a_efi
                0x000000004a063390       0x60 arch/arm/cpu/armv8/start.o
 .rela.rodata.root_info
                0x000000004a0633f0       0x18 arch/arm/cpu/armv8/start.o
 .rela.rodata.generic_simple_bus_ids
                0x000000004a063408       0x30 arch/arm/cpu/armv8/start.o
 .rela.rodata.kbd_to_ansi364
                0x000000004a063438        0x0 arch/arm/cpu/armv8/start.o
 .rela.u_boot_list_2_driver_2_root_driver
                0x000000004a063438       0x18 arch/arm/cpu/armv8/start.o
 .rela.u_boot_list_2_uclass_2_root
                0x000000004a063450       0x18 arch/arm/cpu/armv8/start.o
 .rela.u_boot_list_2_driver_2_simple_bus_drv
                0x000000004a063468       0x30 arch/arm/cpu/armv8/start.o
 .rela.u_boot_list_2_uclass_2_simple_bus
                0x000000004a063498       0x30 arch/arm/cpu/armv8/start.o
 .rela.u_boot_list_2_uclass_2_keyboard
                0x000000004a0634c8       0x30 arch/arm/cpu/armv8/start.o
 .rela.data.kbd_entry
                0x000000004a0634f8        0x0 arch/arm/cpu/armv8/start.o
 .rela.rodata.gpio_function
                0x000000004a0634f8       0x78 arch/arm/cpu/armv8/start.o
 .rela.rodata.gpio_sunxi_ops
                0x000000004a063570       0x90 arch/arm/cpu/armv8/start.o
 .rela.rodata.sunxi_gpio_ids
                0x000000004a063600      0x330 arch/arm/cpu/armv8/start.o
 .rela.u_boot_list_2_uclass_2_gpio
                0x000000004a063930       0x48 arch/arm/cpu/armv8/start.o
 .rela.u_boot_list_2_driver_2_gpio_sunxi
                0x000000004a063978       0x78 arch/arm/cpu/armv8/start.o
 .rela.rodata.sunxi_mmc_ops
                0x000000004a0639f0       0x60 arch/arm/cpu/armv8/start.o
 .rela.u_boot_list_2_blk_driver_2_mmc
                0x000000004a063a50       0x48 arch/arm/cpu/armv8/start.o
 .rela.rodata.sun8i_emac_eth_ids
                0x000000004a063a98       0x48 arch/arm/cpu/armv8/start.o
 .rela.rodata.sun8i_emac_eth_ops
                0x000000004a063ae0       0x90 arch/arm/cpu/armv8/start.o
 .rela.u_boot_list_2_driver_2_eth_sun8i_emac
                0x000000004a063b70       0x78 arch/arm/cpu/armv8/start.o
 .rela.rodata.phy_interface_strings
                0x000000004a063be8      0x198 arch/arm/cpu/armv8/start.o
 .rela.data.genphy_driver
                0x000000004a063d80       0x60 arch/arm/cpu/armv8/start.o
 .rela.data.phy_drivers
                0x000000004a063de0       0x30 arch/arm/cpu/armv8/start.o
 .rela.rodata.ns16550_serial_ids
                0x000000004a063e10      0x108 arch/arm/cpu/armv8/start.o
 .rela.rodata.ns16550_serial_ops
                0x000000004a063f18       0x60 arch/arm/cpu/armv8/start.o
 .rela.u_boot_list_2_env_clbk_2_baudrate
                0x000000004a063f78       0x30 arch/arm/cpu/armv8/start.o
 .rela.u_boot_list_2_uclass_2_serial
                0x000000004a063fa8       0x48 arch/arm/cpu/armv8/start.o
 .rela.u_boot_list_2_driver_2_ns16550_serial
                0x000000004a063ff0       0x78 arch/arm/cpu/armv8/start.o
 .rela.rodata.usb_dr_modes
                0x000000004a064068        0x0 arch/arm/cpu/armv8/start.o
 .rela.rodata.cc_to_string
                0x000000004a064068      0x180 arch/arm/cpu/armv8/start.o
 .rela.rodata.ohci_usb_ids
                0x000000004a0641e8       0xd8 arch/arm/cpu/armv8/start.o
 .rela.rodata.default_ehci_ops
                0x000000004a0642c0        0x0 arch/arm/cpu/armv8/start.o
 .rela.rodata.ehci_usb_ids
                0x000000004a0642c0       0xd8 arch/arm/cpu/armv8/start.o
 .rela.u_boot_list_2_driver_2_usb_dev_generic_drv
                0x000000004a064398       0x18 arch/arm/cpu/armv8/start.o
 .rela.u_boot_list_2_uclass_2_usb
                0x000000004a0643b0       0x60 arch/arm/cpu/armv8/start.o
 .rela.u_boot_list_2_uclass_2_usb_dev_generic
                0x000000004a064410       0x18 arch/arm/cpu/armv8/start.o
 .rela.data.ohci_usb_ops
                0x000000004a064428       0x90 arch/arm/cpu/armv8/start.o
 .rela.u_boot_list_2_driver_2_usb_ohci
                0x000000004a0644b8       0x78 arch/arm/cpu/armv8/start.o
 .rela.data.ehci_usb_ops
                0x000000004a064530       0x90 arch/arm/cpu/armv8/start.o
 .rela.u_boot_list_2_driver_2_ehci_sunxi
                0x000000004a0645c0       0x78 arch/arm/cpu/armv8/start.o
 .rela.rodata.filesystems
                0x000000004a064638        0x0 arch/arm/cpu/armv8/start.o
 .rela.data.fstypes
                0x000000004a064638      0x288 arch/arm/cpu/armv8/start.o
 .rela.rodata.efi_boot_services
                0x000000004a0648c0      0x3f0 arch/arm/cpu/armv8/start.o
 .rela.rodata.efi_runtime_detach_list
                0x000000004a064cb0       0xf0 arch/arm/cpu/armv8/start.o
 .rela.rodata.efi_con_in
                0x000000004a064da0       0x30 arch/arm/cpu/armv8/start.o
 .rela.rodata.efi_con_out
                0x000000004a064dd0       0xf0 arch/arm/cpu/armv8/start.o
 .rela.rodata.efi_console_control
                0x000000004a064ec0       0x48 arch/arm/cpu/armv8/start.o
 .rela.rodata.z_errmsg
                0x000000004a064f08        0x0 arch/arm/cpu/armv8/start.o
 .rela.rodata.fdt_errtable
                0x000000004a064f08      0x198 arch/arm/cpu/armv8/start.o
 .rela.rodata.smbios_write_funcs
                0x000000004a0650a0       0xa8 arch/arm/cpu/armv8/start.o
 .rela.rodata.compat_names
                0x000000004a065148        0x0 arch/arm/cpu/armv8/start.o
 .rela.data.efi_obj_list
                0x000000004a065148       0x30 arch/arm/cpu/armv8/start.o
 .rela.data.loaded_image_info_obj.7936
                0x000000004a065178       0x30 arch/arm/cpu/armv8/start.o
 .rela.data.efi_runtime_mmio
                0x000000004a0651a8       0x30 arch/arm/cpu/armv8/start.o
 .rela.data.efi_mem
                0x000000004a0651d8       0x30 arch/arm/cpu/armv8/start.o
 .rela.data.current
                0x000000004a065208        0x0 arch/arm/cpu/armv8/start.o
 .rela.u_boot_list_2_env_clbk_2_ethaddr
                0x000000004a065208       0x30 arch/arm/cpu/armv8/start.o
 .rela.u_boot_list_2_uclass_2_eth
                0x000000004a065238       0x78 arch/arm/cpu/armv8/start.o
 .rela.u_boot_list_2_env_clbk_2_bootfile
                0x000000004a0652b0       0x30 arch/arm/cpu/armv8/start.o
 .rela.u_boot_list_2_env_clbk_2_gatewayip
                0x000000004a0652e0       0x30 arch/arm/cpu/armv8/start.o
 .rela.u_boot_list_2_env_clbk_2_ipaddr
                0x000000004a065310       0x30 arch/arm/cpu/armv8/start.o
 .rela.u_boot_list_2_env_clbk_2_netmask
                0x000000004a065340       0x30 arch/arm/cpu/armv8/start.o
 .rela.u_boot_list_2_env_clbk_2_nvlan
                0x000000004a065370       0x30 arch/arm/cpu/armv8/start.o
 .rela.u_boot_list_2_env_clbk_2_serverip
                0x000000004a0653a0       0x30 arch/arm/cpu/armv8/start.o
 .rela.u_boot_list_2_env_clbk_2_vlan
                0x000000004a0653d0       0x30 arch/arm/cpu/armv8/start.o
 .rela.data.test_commands
                0x000000004a065400      0x120 arch/arm/cpu/armv8/start.o
 .rela.u_boot_list_2_cmd_2_dm
                0x000000004a065520       0x60 arch/arm/cpu/armv8/start.o

.rel_dyn_end    0x000000004a065580        0x0
 *(.__rel_dyn_end)
 .__rel_dyn_end
                0x000000004a065580        0x0 arch/arm/lib/built-in.o
                0x000000004a065580                _end = .
                0x000000004a065580                . = ALIGN (0x8)

.bss_start      0x000000004a065580        0x0
 *(.__bss_start)
 .__bss_start   0x000000004a065580        0x0 arch/arm/lib/built-in.o
                0x000000004a065580                __bss_start

.bss            0x000000004a065580    0x3b948
 *(.bss*)
 .bss.params    0x000000004a065580        0x8 arch/arm/lib/built-in.o
 .bss.initial_usb_scan_delay
                0x000000004a065588        0x4 arch/arm/mach-sunxi/built-in.o
 *fill*         0x000000004a06558c        0x4 
 .bss.data.7143
                0x000000004a065590      0x400 cmd/built-in.o
 .bss.working_fdt
                0x000000004a065990        0x8 cmd/built-in.o
                0x000000004a065990                working_fdt
 .bss.a_b       0x000000004a065998       0x18 cmd/built-in.o
 .bss.bin_start_address
                0x000000004a0659b0        0x8 cmd/built-in.o
 .bss.his_eol   0x000000004a0659b8        0x1 cmd/built-in.o
 .bss.his_pad_char
                0x000000004a0659b9        0x1 cmd/built-in.o
 *fill*         0x000000004a0659ba        0x2 
 .bss.his_pad_count
                0x000000004a0659bc        0x4 cmd/built-in.o
 .bss.his_quote
                0x000000004a0659c0        0x1 cmd/built-in.o
 *fill*         0x000000004a0659c1        0x3 
 .bss.k_data_escape
                0x000000004a0659c4        0x4 cmd/built-in.o
 .bss.k_data_escape_saved
                0x000000004a0659c8        0x4 cmd/built-in.o
 *fill*         0x000000004a0659cc        0x4 
 .bss.os_data_addr
                0x000000004a0659d0        0x8 cmd/built-in.o
 .bss.os_data_addr_saved
                0x000000004a0659d8        0x8 cmd/built-in.o
 .bss.os_data_char
                0x000000004a0659e0        0x8 cmd/built-in.o
 .bss.os_data_init
                0x000000004a0659e8        0x8 cmd/built-in.o
 .bss.os_data_state
                0x000000004a0659f0        0x4 cmd/built-in.o
 .bss.os_data_state_saved
                0x000000004a0659f4        0x4 cmd/built-in.o
 .bss.send_parms
                0x000000004a0659f8       0x14 cmd/built-in.o
 *fill*         0x000000004a065a0c        0x4 
 .bss.send_ptr  0x000000004a065a10        0x8 cmd/built-in.o
 .bss.base_address
                0x000000004a065a18        0x8 cmd/built-in.o
 .bss.dp_last_addr
                0x000000004a065a20        0x8 cmd/built-in.o
 .bss.dp_last_size
                0x000000004a065a28        0x8 cmd/built-in.o
 .bss.mm_last_addr
                0x000000004a065a30        0x8 cmd/built-in.o
 .bss.mm_last_size
                0x000000004a065a38        0x8 cmd/built-in.o
 .bss.last_addr_hi
                0x000000004a065a40        0x8 cmd/built-in.o
 .bss.last_addr_lo
                0x000000004a065a48        0x8 cmd/built-in.o
 .bss.last_data
                0x000000004a065a50        0x8 cmd/built-in.o
 .bss.last_mask
                0x000000004a065a58        0x4 cmd/built-in.o
 *fill*         0x000000004a065a5c        0x4 
 .bss.last_op   0x000000004a065a60        0xa cmd/built-in.o
 *fill*         0x000000004a065a6a        0x2 
 .bss.last_reg_hi
                0x000000004a065a6c        0x8 cmd/built-in.o
 .bss.last_reg_lo
                0x000000004a065a74        0x8 cmd/built-in.o
 .bss.last_devad_hi
                0x000000004a065a7c        0x4 cmd/built-in.o
 .bss.last_devad_lo
                0x000000004a065a80        0x4 cmd/built-in.o
 *fill*         0x000000004a065a84        0x4 
 .bss.do_getfile
                0x000000004a065a88        0x8 cmd/built-in.o
 .bss.fs_argv   0x000000004a065a90       0x28 cmd/built-in.o
 .bss.is_pxe    0x000000004a065ab8        0x1 cmd/built-in.o
 *fill*         0x000000004a065ab9        0x7 
 .bss.buf.7561  0x000000004a065ac0       0x28 common/built-in.o
 .bss.do_repeat
                0x000000004a065ae8        0x4 common/built-in.o
 .bss.flag_repeat
                0x000000004a065aec        0x4 common/built-in.o
 .bss.ifs       0x000000004a065af0        0x8 common/built-in.o
 .bss.last_return_code
                0x000000004a065af8        0x4 common/built-in.o
 *fill*         0x000000004a065afc        0x4 
 .bss.map       0x000000004a065b00      0x100 common/built-in.o
 .bss.the_command.7361
                0x000000004a065c00      0x401 common/built-in.o
 *fill*         0x000000004a066001        0x7 
 .bss.top_vars  0x000000004a066008        0x8 common/built-in.o
 .bss.stored_bootdelay
                0x000000004a066010        0x4 common/built-in.o
 .bss.boot_source
                0x000000004a066014        0x4 common/built-in.o
 .bss.monitor_flash_len
                0x000000004a066018        0x8 common/built-in.o
                0x000000004a066018                monitor_flash_len
 .bss.images    0x000000004a066020      0x280 common/built-in.o
                0x000000004a066020                images
 .bss.callback_list
                0x000000004a0662a0        0x8 common/built-in.o
 .bss.flags_list
                0x000000004a0662a8        0x8 common/built-in.o
 .bss.current_mii
                0x000000004a0662b0        0x8 common/built-in.o
 .bss.mii_devs  0x000000004a0662b8       0x10 common/built-in.o
 .bss.usb_started
                0x000000004a0662c8        0x1 common/built-in.o
                0x000000004a0662c8                usb_started
 *fill*         0x000000004a0662c9        0x7 
 .bss.hub_dev   0x000000004a0662d0      0x480 common/built-in.o
 .bss.running.9159
                0x000000004a066750        0x4 common/built-in.o
 .bss.usb_hub_index
                0x000000004a066754        0x4 common/built-in.o
 .bss.CBWTag    0x000000004a066758        0x4 common/built-in.o
 *fill*         0x000000004a06675c       0x24 
 .bss.usb_ccb   0x000000004a066780      0x100 common/built-in.o
 .bss.usb_dev_desc
                0x000000004a066880      0x3f0 common/built-in.o
 .bss.usb_max_devs
                0x000000004a066c70        0x4 common/built-in.o
 *fill*         0x000000004a066c74        0x4 
 .bss.usb_stor  0x000000004a066c78      0x1f8 common/built-in.o
 .bss.kbd_testc_tms
                0x000000004a066e70        0x8 common/built-in.o
 .bss.cd_count  0x000000004a066e78        0xc common/built-in.o
                0x000000004a066e78                cd_count
 *fill*         0x000000004a066e84        0x4 
 .bss.console_devices
                0x000000004a066e88       0x18 common/built-in.o
                0x000000004a066e88                console_devices
 .bss.ctrlc_disabled
                0x000000004a066ea0        0x4 common/built-in.o
 .bss.ctrlc_was_pressed
                0x000000004a066ea4        0x4 common/built-in.o
 .bss.tstcdev   0x000000004a066ea8        0x8 common/built-in.o
 .bss.current_mallinfo
                0x000000004a066eb0       0x28 common/built-in.o
 .bss.max_sbrked_mem
                0x000000004a066ed8        0x8 common/built-in.o
 .bss.max_total_mem
                0x000000004a066ee0        0x8 common/built-in.o
 .bss.mem_malloc_brk
                0x000000004a066ee8        0x8 common/built-in.o
                0x000000004a066ee8                mem_malloc_brk
 .bss.mem_malloc_end
                0x000000004a066ef0        0x8 common/built-in.o
                0x000000004a066ef0                mem_malloc_end
 .bss.mem_malloc_start
                0x000000004a066ef8        0x8 common/built-in.o
                0x000000004a066ef8                mem_malloc_start
 .bss.top_pad   0x000000004a066f00        0x8 common/built-in.o
 .bss.devs      0x000000004a066f08       0x70 common/built-in.o
 .bss.stdio_devices
                0x000000004a066f78       0x18 common/built-in.o
                0x000000004a066f78                stdio_devices
 .bss.console_buffer
                0x000000004a066f90      0x401 common/built-in.o
                0x000000004a066f90                console_buffer
 *fill*         0x000000004a067391        0x3 
 .bss.hist_add_idx
                0x000000004a067394        0x4 common/built-in.o
 .bss.hist_lines
                0x000000004a067398     0x5014 common/built-in.o
 *fill*         0x000000004a06c3ac        0x4 
 .bss.hist_list
                0x000000004a06c3b0       0xa0 common/built-in.o
 .bss.hist_max  0x000000004a06c450        0x4 common/built-in.o
 .bss.hist_num  0x000000004a06c454        0x4 common/built-in.o
 .bss.initted.7158
                0x000000004a06c458        0x4 common/built-in.o
 *fill*         0x000000004a06c45c        0x4 
 .bss.tmp_buf   0x000000004a06c460      0x400 common/built-in.o
 .bss.tmp_buf.7120
                0x000000004a06c860      0x200 common/built-in.o
 .bss.xyz       0x000000004a06ca60      0x448 common/built-in.o
 .bss.tmpbuf    0x000000004a06cea8      0x800 disk/built-in.o
 .bss.name.7783
                0x000000004a06d6a8       0x25 disk/built-in.o
 *fill*         0x000000004a06d6cd        0x3 
 .bss.mmc_devices
                0x000000004a06d6d0       0x10 drivers/mmc/built-in.o
 .bss.initialized.8921
                0x000000004a06d6e0        0x4 drivers/mmc/built-in.o
 *fill*         0x000000004a06d6e4        0x4 
 .bss.mmc_host  0x000000004a06d6e8      0x120 drivers/mmc/built-in.o
                0x000000004a06d6e8                mmc_host
 .bss.asynch_allowed
                0x000000004a06d808        0x1 drivers/usb/host/built-in.o
 *fill*         0x000000004a06d809        0x7 
 .bss.fs_dev_desc
                0x000000004a06d810        0x8 fs/built-in.o
 .bss.fs_partition
                0x000000004a06d818       0x88 fs/built-in.o
 .bss.fs_type   0x000000004a06d8a0        0x4 fs/built-in.o
 *fill*         0x000000004a06d8a4        0x4 
 .bss.ext_fs    0x000000004a06d8a8       0x68 fs/built-in.o
                0x000000004a06d8a8                ext_fs
 .bss.ext4fs_file
                0x000000004a06d910        0x8 fs/built-in.o
                0x000000004a06d910                ext4fs_file
 .bss.ext4fs_indir1_block
                0x000000004a06d918        0x8 fs/built-in.o
                0x000000004a06d918                ext4fs_indir1_block
 .bss.ext4fs_indir1_size
                0x000000004a06d920        0x4 fs/built-in.o
                0x000000004a06d920                ext4fs_indir1_size
 *fill*         0x000000004a06d924        0x4 
 .bss.ext4fs_indir2_block
                0x000000004a06d928        0x8 fs/built-in.o
                0x000000004a06d928                ext4fs_indir2_block
 .bss.ext4fs_indir2_size
                0x000000004a06d930        0x4 fs/built-in.o
                0x000000004a06d930                ext4fs_indir2_size
 *fill*         0x000000004a06d934        0x4 
 .bss.ext4fs_indir3_block
                0x000000004a06d938        0x8 fs/built-in.o
                0x000000004a06d938                ext4fs_indir3_block
 .bss.ext4fs_indir3_size
                0x000000004a06d940        0x4 fs/built-in.o
                0x000000004a06d940                ext4fs_indir3_size
 *fill*         0x000000004a06d944        0x4 
 .bss.ext4fs_root
                0x000000004a06d948        0x8 fs/built-in.o
                0x000000004a06d948                ext4fs_root
 .bss.symlinknest
                0x000000004a06d950        0x4 fs/built-in.o
 *fill*         0x000000004a06d954        0x4 
 .bss.ext4fs_blk_desc
                0x000000004a06d958        0x8 fs/built-in.o
 .bss.part_info
                0x000000004a06d960        0x8 fs/built-in.o
 .bss.part_offset
                0x000000004a06d968        0x8 fs/built-in.o
                0x000000004a06d968                part_offset
 .bss.cur_dev   0x000000004a06d970        0x8 fs/built-in.o
 .bss.cur_part_info
                0x000000004a06d978       0x88 fs/built-in.o
 .bss.dir_curclust
                0x000000004a06da00        0x4 fs/built-in.o
 *fill*         0x000000004a06da04       0x3c 
 .bss.do_fat_read_at_block
                0x000000004a06da40    0x10000 fs/built-in.o
                0x000000004a06da40                do_fat_read_at_block
 .bss.empty_dentptr
                0x000000004a07da40        0x8 fs/built-in.o
 *fill*         0x000000004a07da48       0x38 
 .bss.get_contents_vfatname_block
                0x000000004a07da80    0x10000 fs/built-in.o
                0x000000004a07da80                get_contents_vfatname_block
 .bss.get_dentfromdir_block
                0x000000004a08da80    0x10000 fs/built-in.o
                0x000000004a08da80                get_dentfromdir_block
 .bss.num_of_fats
                0x000000004a09da80        0x1 fs/built-in.o
 *fill*         0x000000004a09da81        0x3 
 .bss.total_sector
                0x000000004a09da84        0x4 fs/built-in.o
 .bss.app_gd    0x000000004a09da88        0x8 lib/built-in.o
 .bss.efi_gd    0x000000004a09da90        0x8 lib/built-in.o
 .bss.mono.7984
                0x000000004a09da98        0x8 lib/built-in.o
 .bss.console_size_queried
                0x000000004a09daa0        0x1 lib/built-in.o
 *fill*         0x000000004a09daa1        0x7 
 .bss.dhcp_ack  0x000000004a09daa8        0x8 lib/built-in.o
 .bss.new_rx_packet
                0x000000004a09dab0        0x1 lib/built-in.o
 *fill*         0x000000004a09dab1        0x7 
 .bss.new_tx_packet
                0x000000004a09dab8        0x8 lib/built-in.o
 .bss.errno     0x000000004a09dac0        0x4 lib/built-in.o
                0x000000004a09dac0                errno
 *fill*         0x000000004a09dac4        0x4 
 .bss.local.7227
                0x000000004a09dac8       0x16 lib/built-in.o
 *fill*         0x000000004a09dade        0x2 
 .bss.arp_tx_packet
                0x000000004a09dae0        0x8 net/built-in.o
 .bss.arp_tx_packet_buf
                0x000000004a09dae8      0x640 net/built-in.o
 .bss.arp_wait_packet_ethaddr
                0x000000004a09e128        0x8 net/built-in.o
                0x000000004a09e128                arp_wait_packet_ethaddr
 .bss.arp_wait_timer_start
                0x000000004a09e130        0x8 net/built-in.o
                0x000000004a09e130                arp_wait_timer_start
 .bss.arp_wait_try
                0x000000004a09e138        0x4 net/built-in.o
                0x000000004a09e138                arp_wait_try
 .bss.arp_wait_tx_packet_size
                0x000000004a09e13c        0x4 net/built-in.o
                0x000000004a09e13c                arp_wait_tx_packet_size
 .bss.net_arp_wait_packet_ip
                0x000000004a09e140        0x4 net/built-in.o
                0x000000004a09e140                net_arp_wait_packet_ip
 *fill*         0x000000004a09e144        0x4 
 .bss.net_arp_wait_reply_ip
                0x000000004a09e148        0x4 net/built-in.o
 *fill*         0x000000004a09e14c        0x4 
 .bss.bootp_ids
                0x000000004a09e150       0x10 net/built-in.o
                0x000000004a09e150                bootp_ids
 .bss.bootp_num_ids
                0x000000004a09e160        0x4 net/built-in.o
                0x000000004a09e160                bootp_num_ids
 *fill*         0x000000004a09e164        0x4 
 .bss.bootp_start
                0x000000004a09e168        0x8 net/built-in.o
                0x000000004a09e168                bootp_start
 .bss.bootp_timeout
                0x000000004a09e170        0x8 net/built-in.o
                0x000000004a09e170                bootp_timeout
 .bss.bootp_try
                0x000000004a09e178        0x4 net/built-in.o
                0x000000004a09e178                bootp_try
 .bss.dhcp_leasetime
                0x000000004a09e17c        0x4 net/built-in.o
 .bss.dhcp_option_overload
                0x000000004a09e180        0x1 net/built-in.o
 *fill*         0x000000004a09e181        0x7 
 .bss.dhcp_server_ip
                0x000000004a09e188        0x4 net/built-in.o
 .bss.dhcp_state
                0x000000004a09e18c        0x4 net/built-in.o
 .bss.net_hostname
                0x000000004a09e190       0x20 net/built-in.o
                0x000000004a09e190                net_hostname
 .bss.net_nis_domain
                0x000000004a09e1b0       0x20 net/built-in.o
                0x000000004a09e1b0                net_nis_domain
 .bss.net_root_path
                0x000000004a09e1d0       0x40 net/built-in.o
                0x000000004a09e1d0                net_root_path
 .bss.time_taken_max
                0x000000004a09e210        0x8 net/built-in.o
 .bss.eth_errno
                0x000000004a09e218        0x4 net/built-in.o
 *fill*         0x000000004a09e21c        0x4 
 .bss.act.8701  0x000000004a09e220        0x8 net/built-in.o
 .bss.env_changed_id.8702
                0x000000004a09e228        0x4 net/built-in.o
 *fill*         0x000000004a09e22c        0x4 
 .bss.first_failed.8696
                0x000000004a09e230        0x8 net/built-in.o
 .bss.arp_packet_handler
                0x000000004a09e238        0x8 net/built-in.o
 .bss.net_boot_file_expected_size_in_blocks
                0x000000004a09e240        0x4 net/built-in.o
                0x000000004a09e240                net_boot_file_expected_size_in_blocks
 *fill*         0x000000004a09e244        0x4 
 .bss.net_boot_file_name
                0x000000004a09e248      0x400 net/built-in.o
                0x000000004a09e248                net_boot_file_name
 .bss.net_boot_file_size
                0x000000004a09e648        0x4 net/built-in.o
                0x000000004a09e648                net_boot_file_size
 .bss.net_busy_flag
                0x000000004a09e64c        0x4 net/built-in.o
                0x000000004a09e64c                net_busy_flag
 .bss.net_dev_exists
                0x000000004a09e650        0x4 net/built-in.o
 *fill*         0x000000004a09e654        0x4 
 .bss.net_dns_server
                0x000000004a09e658        0x4 net/built-in.o
                0x000000004a09e658                net_dns_server
 *fill*         0x000000004a09e65c        0x4 
 .bss.net_ethaddr
                0x000000004a09e660        0x6 net/built-in.o
                0x000000004a09e660                net_ethaddr
 *fill*         0x000000004a09e666        0x2 
 .bss.net_gateway
                0x000000004a09e668        0x4 net/built-in.o
                0x000000004a09e668                net_gateway
 *fill*         0x000000004a09e66c        0x4 
 .bss.net_ip    0x000000004a09e670        0x4 net/built-in.o
                0x000000004a09e670                net_ip
 .bss.net_ip_id
                0x000000004a09e674        0x4 net/built-in.o
 .bss.net_netmask
                0x000000004a09e678        0x4 net/built-in.o
                0x000000004a09e678                net_netmask
 *fill*         0x000000004a09e67c        0x4 
 .bss.net_null_ethaddr
                0x000000004a09e680        0x6 net/built-in.o
                0x000000004a09e680                net_null_ethaddr
 *fill*         0x000000004a09e686        0x2 
 .bss.net_pkt_buf
                0x000000004a09e688     0x1e40 net/built-in.o
 .bss.net_restart_wrap
                0x000000004a0a04c8        0x4 net/built-in.o
                0x000000004a0a04c8                net_restart_wrap
 .bss.net_restarted
                0x000000004a0a04cc        0x4 net/built-in.o
 .bss.net_rx_packet
                0x000000004a0a04d0        0x8 net/built-in.o
                0x000000004a0a04d0                net_rx_packet
 .bss.net_rx_packet_len
                0x000000004a0a04d8        0x4 net/built-in.o
                0x000000004a0a04d8                net_rx_packet_len
 *fill*         0x000000004a0a04dc        0x4 
 .bss.net_rx_packets
                0x000000004a0a04e0       0x20 net/built-in.o
                0x000000004a0a04e0                net_rx_packets
 .bss.net_server_ethaddr
                0x000000004a0a0500        0x6 net/built-in.o
                0x000000004a0a0500                net_server_ethaddr
 *fill*         0x000000004a0a0506        0x2 
 .bss.net_server_ip
                0x000000004a0a0508        0x4 net/built-in.o
                0x000000004a0a0508                net_server_ip
 .bss.net_state
                0x000000004a0a050c        0x4 net/built-in.o
                0x000000004a0a050c                net_state
 .bss.net_try_count
                0x000000004a0a0510        0x4 net/built-in.o
 *fill*         0x000000004a0a0514        0x4 
 .bss.net_tx_packet
                0x000000004a0a0518        0x8 net/built-in.o
                0x000000004a0a0518                net_tx_packet
 .bss.push_packet
                0x000000004a0a0520        0x8 net/built-in.o
                0x000000004a0a0520                push_packet
 .bss.time_delta
                0x000000004a0a0528        0x8 net/built-in.o
 .bss.time_handler
                0x000000004a0a0530        0x8 net/built-in.o
 .bss.time_start
                0x000000004a0a0538       0x10 net/built-in.o
 .bss.udp_packet_handler
                0x000000004a0a0548        0x8 net/built-in.o
 .bss.dirfh     0x000000004a0a0550       0x20 net/built-in.o
 .bss.filefh    0x000000004a0a0570       0x40 net/built-in.o
 .bss.filefh3_length
                0x000000004a0a05b0        0x4 net/built-in.o
 .bss.fs_mounted
                0x000000004a0a05b4        0x4 net/built-in.o
 .bss.nfs_download_state
                0x000000004a0a05b8        0x4 net/built-in.o
 *fill*         0x000000004a0a05bc        0x4 
 .bss.nfs_filename
                0x000000004a0a05c0        0x8 net/built-in.o
 .bss.nfs_len   0x000000004a0a05c8        0x4 net/built-in.o
 .bss.nfs_our_port
                0x000000004a0a05cc        0x4 net/built-in.o
 .bss.nfs_path  0x000000004a0a05d0        0x8 net/built-in.o
 .bss.nfs_path_buff
                0x000000004a0a05d8      0x800 net/built-in.o
 .bss.nfs_server_ip
                0x000000004a0a0dd8        0x4 net/built-in.o
 .bss.nfs_server_mount_port
                0x000000004a0a0ddc        0x4 net/built-in.o
 .bss.nfs_server_port
                0x000000004a0a0de0        0x4 net/built-in.o
 .bss.nfs_state
                0x000000004a0a0de4        0x4 net/built-in.o
 .bss.nfs_timeout_count
                0x000000004a0a0de8        0x4 net/built-in.o
 *fill*         0x000000004a0a0dec        0x4 
 .bss.rpc_id    0x000000004a0a0df0        0x8 net/built-in.o
 .bss.net_ping_ip
                0x000000004a0a0df8        0x4 net/built-in.o
                0x000000004a0a0df8                net_ping_ip
 .bss.ping_seq_number
                0x000000004a0a0dfc        0x2 net/built-in.o
 *fill*         0x000000004a0a0dfe        0x2 
 .bss.default_filename
                0x000000004a0a0e00        0xd net/built-in.o
 *fill*         0x000000004a0a0e0d        0x3 
 .bss.tftp_block_wrap
                0x000000004a0a0e10        0x8 net/built-in.o
 .bss.tftp_block_wrap_offset
                0x000000004a0a0e18        0x8 net/built-in.o
 .bss.tftp_cur_block
                0x000000004a0a0e20        0x8 net/built-in.o
 .bss.tftp_filename
                0x000000004a0a0e28       0x80 net/built-in.o
 .bss.tftp_our_port
                0x000000004a0a0ea8        0x4 net/built-in.o
 *fill*         0x000000004a0a0eac        0x4 
 .bss.tftp_prev_block
                0x000000004a0a0eb0        0x8 net/built-in.o
 .bss.tftp_remote_ip
                0x000000004a0a0eb8        0x4 net/built-in.o
 .bss.tftp_remote_port
                0x000000004a0a0ebc        0x4 net/built-in.o
 .bss.tftp_state
                0x000000004a0a0ec0        0x4 net/built-in.o
 .bss.timeout_count
                0x000000004a0a0ec4        0x4 net/built-in.o
                0x000000004a0a0ec8                . = ALIGN (0x8)

.dynbss         0x000000004a0a0ec8        0x0
 .dynbss        0x000000004a0a0ec8        0x0 arch/arm/cpu/armv8/start.o

.bss_end        0x000000004a0a0ec8        0x0
 *(.__bss_end)
 .__bss_end     0x000000004a0a0ec8        0x0 arch/arm/lib/built-in.o
                0x000000004a0a0ec8                __bss_end

/DISCARD/
 *(.dynsym)
 *(.dynstr*)
 *(.dynamic*)
 *(.plt*)
 *(.interp*)
 *(.gnu*)
LOAD arch/arm/cpu/armv8/start.o
START GROUP
LOAD arch/arm/cpu/built-in.o
LOAD arch/arm/cpu/armv8/built-in.o
LOAD arch/arm/lib/built-in.o
LOAD arch/arm/mach-sunxi/built-in.o
LOAD board/sunxi/built-in.o
LOAD cmd/built-in.o
LOAD common/built-in.o
LOAD disk/built-in.o
LOAD drivers/built-in.o
LOAD drivers/dma/built-in.o
LOAD drivers/gpio/built-in.o
LOAD drivers/i2c/built-in.o
LOAD drivers/mmc/built-in.o
LOAD drivers/mtd/built-in.o
LOAD drivers/mtd/onenand/built-in.o
LOAD drivers/mtd/spi/built-in.o
LOAD drivers/net/built-in.o
LOAD drivers/net/phy/built-in.o
LOAD drivers/pci/built-in.o
LOAD drivers/power/built-in.o
LOAD drivers/power/battery/built-in.o
LOAD drivers/power/domain/built-in.o
LOAD drivers/power/fuel_gauge/built-in.o
LOAD drivers/power/mfd/built-in.o
LOAD drivers/power/pmic/built-in.o
LOAD drivers/power/regulator/built-in.o
LOAD drivers/serial/built-in.o
LOAD drivers/spi/built-in.o
LOAD drivers/usb/common/built-in.o
LOAD drivers/usb/dwc3/built-in.o
LOAD drivers/usb/emul/built-in.o
LOAD drivers/usb/eth/built-in.o
LOAD drivers/usb/gadget/built-in.o
LOAD drivers/usb/gadget/udc/built-in.o
LOAD drivers/usb/host/built-in.o
LOAD drivers/usb/musb-new/built-in.o
LOAD drivers/usb/musb/built-in.o
LOAD drivers/usb/phy/built-in.o
LOAD drivers/usb/ulpi/built-in.o
LOAD fs/built-in.o
LOAD lib/built-in.o
LOAD net/built-in.o
LOAD test/built-in.o
LOAD test/dm/built-in.o
END GROUP
LOAD /root/Workspace/tools/toolchains/gcc-linaro-6.4.1-2017.11-x86_64_aarch64-linux-gnu/bin/../lib/gcc/aarch64-linux-gnu/6.4.1/libgcc.a
OUTPUT(u-boot elf64-littleaarch64)

.debug_line     0x0000000000000000    0x2c040
 .debug_line    0x0000000000000000       0xb3 arch/arm/cpu/armv8/start.o
 .debug_line    0x00000000000000b3      0xfc7 arch/arm/cpu/armv8/built-in.o
 .debug_line    0x000000000000107a      0xf21 arch/arm/lib/built-in.o
 .debug_line    0x0000000000001f9b     0x1307 arch/arm/mach-sunxi/built-in.o
 .debug_line    0x00000000000032a2      0x425 board/sunxi/built-in.o
 .debug_line    0x00000000000036c7     0x6552 cmd/built-in.o
 .debug_line    0x0000000000009c19     0xa6d7 common/built-in.o
 .debug_line    0x00000000000142f0     0x145a disk/built-in.o
 .debug_line    0x000000000001574a     0x2de3 drivers/built-in.o
 .debug_line    0x000000000001852d      0xbae drivers/gpio/built-in.o
 .debug_line    0x00000000000190db     0x12b3 drivers/mmc/built-in.o
 .debug_line    0x000000000001a38e      0x554 drivers/net/built-in.o
 .debug_line    0x000000000001a8e2      0x7d6 drivers/net/phy/built-in.o
 .debug_line    0x000000000001b0b8      0x81f drivers/serial/built-in.o
 .debug_line    0x000000000001b8d7     0x1cdc drivers/usb/host/built-in.o
 .debug_line    0x000000000001d5b3     0x2248 fs/built-in.o
 .debug_line    0x000000000001f7fb     0x9ddf lib/built-in.o
 .debug_line    0x00000000000295da     0x288e net/built-in.o
 .debug_line    0x000000000002be68      0x1d8 test/dm/built-in.o

.debug_info     0x0000000000000000   0x155c94
 .debug_info    0x0000000000000000       0x97 arch/arm/cpu/armv8/start.o
 .debug_info    0x0000000000000097     0x6bc6 arch/arm/cpu/armv8/built-in.o
 .debug_info    0x0000000000006c5d     0x87c9 arch/arm/lib/built-in.o
 .debug_info    0x000000000000f426     0x9cf0 arch/arm/mach-sunxi/built-in.o
 .debug_info    0x0000000000019116     0x2ac8 board/sunxi/built-in.o
 .debug_info    0x000000000001bbde    0x38c80 cmd/built-in.o
 .debug_info    0x000000000005485e    0x4fc89 common/built-in.o
 .debug_info    0x00000000000a44e7     0x8fe6 disk/built-in.o
 .debug_info    0x00000000000ad4cd    0x16689 drivers/built-in.o
 .debug_info    0x00000000000c3b56     0x53cb drivers/gpio/built-in.o
 .debug_info    0x00000000000c8f21     0x8fbc drivers/mmc/built-in.o
 .debug_info    0x00000000000d1edd     0x3de2 drivers/net/built-in.o
 .debug_info    0x00000000000d5cbf     0x3373 drivers/net/phy/built-in.o
 .debug_info    0x00000000000d9032     0x46a1 drivers/serial/built-in.o
 .debug_info    0x00000000000dd6d3    0x11692 drivers/usb/host/built-in.o
 .debug_info    0x00000000000eed65     0xec6f fs/built-in.o
 .debug_info    0x00000000000fd9d4    0x43dcb lib/built-in.o
 .debug_info    0x000000000014179f    0x1364e net/built-in.o
 .debug_info    0x0000000000154ded      0xea7 test/dm/built-in.o

.debug_abbrev   0x0000000000000000    0x2ba59
 .debug_abbrev  0x0000000000000000       0x14 arch/arm/cpu/armv8/start.o
 .debug_abbrev  0x0000000000000014      0xed9 arch/arm/cpu/armv8/built-in.o
 .debug_abbrev  0x0000000000000eed     0x13dd arch/arm/lib/built-in.o
 .debug_abbrev  0x00000000000022ca     0x1a29 arch/arm/mach-sunxi/built-in.o
 .debug_abbrev  0x0000000000003cf3      0x4c8 board/sunxi/built-in.o
 .debug_abbrev  0x00000000000041bb     0x7661 cmd/built-in.o
 .debug_abbrev  0x000000000000b81c     0x9cf2 common/built-in.o
 .debug_abbrev  0x000000000001550e     0x12de disk/built-in.o
 .debug_abbrev  0x00000000000167ec     0x3213 drivers/built-in.o
 .debug_abbrev  0x00000000000199ff      0x9e1 drivers/gpio/built-in.o
 .debug_abbrev  0x000000000001a3e0     0x122e drivers/mmc/built-in.o
 .debug_abbrev  0x000000000001b60e      0x50c drivers/net/built-in.o
 .debug_abbrev  0x000000000001bb1a      0x560 drivers/net/phy/built-in.o
 .debug_abbrev  0x000000000001c07a      0x942 drivers/serial/built-in.o
 .debug_abbrev  0x000000000001c9bc     0x15c8 drivers/usb/host/built-in.o
 .debug_abbrev  0x000000000001df84     0x18ed fs/built-in.o
 .debug_abbrev  0x000000000001f871     0x99ea lib/built-in.o
 .debug_abbrev  0x000000000002925b     0x2555 net/built-in.o
 .debug_abbrev  0x000000000002b7b0      0x2a9 test/dm/built-in.o

.debug_aranges  0x0000000000000000     0x89e0
 .debug_aranges
                0x0000000000000000       0x30 arch/arm/cpu/armv8/start.o
 .debug_aranges
                0x0000000000000030      0x3b0 arch/arm/cpu/armv8/built-in.o
 .debug_aranges
                0x00000000000003e0      0x350 arch/arm/lib/built-in.o
 .debug_aranges
                0x0000000000000730      0x3d0 arch/arm/mach-sunxi/built-in.o
 .debug_aranges
                0x0000000000000b00       0xb0 board/sunxi/built-in.o
 .debug_aranges
                0x0000000000000bb0      0xf30 cmd/built-in.o
 .debug_aranges
                0x0000000000001ae0     0x21c0 common/built-in.o
 .debug_aranges
                0x0000000000003ca0      0x2f0 disk/built-in.o
 .debug_aranges
                0x0000000000003f90      0xa00 drivers/built-in.o
 .debug_aranges
                0x0000000000004990      0x380 drivers/gpio/built-in.o
 .debug_aranges
                0x0000000000004d10      0x360 drivers/mmc/built-in.o
 .debug_aranges
                0x0000000000005070       0xe0 drivers/net/built-in.o
 .debug_aranges
                0x0000000000005150      0x180 drivers/net/phy/built-in.o
 .debug_aranges
                0x00000000000052d0      0x250 drivers/serial/built-in.o
 .debug_aranges
                0x0000000000005520      0x4c0 drivers/usb/host/built-in.o
 .debug_aranges
                0x00000000000059e0      0x5e0 fs/built-in.o
 .debug_aranges
                0x0000000000005fc0     0x2200 lib/built-in.o
 .debug_aranges
                0x00000000000081c0      0x7c0 net/built-in.o
 .debug_aranges
                0x0000000000008980       0x60 test/dm/built-in.o

.comment        0x0000000000000000       0x2d
 .comment       0x0000000000000000       0x2d arch/arm/cpu/armv8/built-in.o
                                         0xe6 (size before relaxing)
 .comment       0x000000000000002d      0x170 arch/arm/lib/built-in.o
 .comment       0x000000000000002d      0x19e arch/arm/mach-sunxi/built-in.o
 .comment       0x000000000000002d       0x2e board/sunxi/built-in.o
 .comment       0x000000000000002d      0x64a cmd/built-in.o
 .comment       0x000000000000002d      0x702 common/built-in.o
 .comment       0x000000000000002d       0xb8 disk/built-in.o
 .comment       0x000000000000002d      0x2b2 drivers/built-in.o
 .comment       0x000000000000002d       0x5c drivers/gpio/built-in.o
 .comment       0x000000000000002d       0xb8 drivers/mmc/built-in.o
 .comment       0x000000000000002d       0x2e drivers/net/built-in.o
 .comment       0x000000000000002d       0x2e drivers/net/phy/built-in.o
 .comment       0x000000000000002d       0x5c drivers/serial/built-in.o
 .comment       0x000000000000002d       0xe6 drivers/usb/host/built-in.o
 .comment       0x000000000000002d      0x114 fs/built-in.o
 .comment       0x000000000000002d      0x9b4 lib/built-in.o
 .comment       0x000000000000002d      0x19e net/built-in.o
 .comment       0x000000000000002d       0x2e test/dm/built-in.o

.note.GNU-stack
                0x0000000000000000        0x0
 .note.GNU-stack
                0x0000000000000000        0x0 arch/arm/cpu/armv8/built-in.o
 .note.GNU-stack
                0x0000000000000000        0x0 arch/arm/lib/built-in.o
 .note.GNU-stack
                0x0000000000000000        0x0 arch/arm/mach-sunxi/built-in.o
 .note.GNU-stack
                0x0000000000000000        0x0 board/sunxi/built-in.o
 .note.GNU-stack
                0x0000000000000000        0x0 cmd/built-in.o
 .note.GNU-stack
                0x0000000000000000        0x0 common/built-in.o
 .note.GNU-stack
                0x0000000000000000        0x0 disk/built-in.o
 .note.GNU-stack
                0x0000000000000000        0x0 drivers/built-in.o
 .note.GNU-stack
                0x0000000000000000        0x0 drivers/gpio/built-in.o
 .note.GNU-stack
                0x0000000000000000        0x0 drivers/mmc/built-in.o
 .note.GNU-stack
                0x0000000000000000        0x0 drivers/net/built-in.o
 .note.GNU-stack
                0x0000000000000000        0x0 drivers/net/phy/built-in.o
 .note.GNU-stack
                0x0000000000000000        0x0 drivers/serial/built-in.o
 .note.GNU-stack
                0x0000000000000000        0x0 drivers/usb/host/built-in.o
 .note.GNU-stack
                0x0000000000000000        0x0 fs/built-in.o
 .note.GNU-stack
                0x0000000000000000        0x0 lib/built-in.o
 .note.GNU-stack
                0x0000000000000000        0x0 net/built-in.o
 .note.GNU-stack
                0x0000000000000000        0x0 test/dm/built-in.o

.debug_frame    0x0000000000000000    0x15fa8
 .debug_frame   0x0000000000000000      0x5e0 arch/arm/cpu/armv8/built-in.o
 .debug_frame   0x00000000000005e0      0x4e0 arch/arm/lib/built-in.o
 .debug_frame   0x0000000000000ac0      0x638 arch/arm/mach-sunxi/built-in.o
 .debug_frame   0x00000000000010f8      0x1d0 board/sunxi/built-in.o
 .debug_frame   0x00000000000012c8     0x2650 cmd/built-in.o
 .debug_frame   0x0000000000003918     0x5c70 common/built-in.o
 .debug_frame   0x0000000000009588      0x910 disk/built-in.o
 .debug_frame   0x0000000000009e98     0x17b8 drivers/built-in.o
 .debug_frame   0x000000000000b650      0x9f0 drivers/gpio/built-in.o
 .debug_frame   0x000000000000c040      0x948 drivers/mmc/built-in.o
 .debug_frame   0x000000000000c988      0x2b0 drivers/net/built-in.o
 .debug_frame   0x000000000000cc38      0x420 drivers/net/phy/built-in.o
 .debug_frame   0x000000000000d058      0x538 drivers/serial/built-in.o
 .debug_frame   0x000000000000d590      0xd00 drivers/usb/host/built-in.o
 .debug_frame   0x000000000000e290     0x10e8 fs/built-in.o
 .debug_frame   0x000000000000f378     0x55f0 lib/built-in.o
 .debug_frame   0x0000000000014968     0x1580 net/built-in.o
 .debug_frame   0x0000000000015ee8       0xc0 test/dm/built-in.o

.debug_str      0x0000000000000000    0x178c3
 .debug_str     0x0000000000000000     0x1468 arch/arm/cpu/armv8/built-in.o
                                       0x4404 (size before relaxing)
 .debug_str     0x0000000000001468     0x1740 arch/arm/lib/built-in.o
                                       0x6dfa (size before relaxing)
 .debug_str     0x0000000000002ba8      0xfec arch/arm/mach-sunxi/built-in.o
                                       0x77fc (size before relaxing)
 .debug_str     0x0000000000003b94      0x8d7 board/sunxi/built-in.o
                                       0x1896 (size before relaxing)
 .debug_str     0x000000000000446b     0x420d cmd/built-in.o
                                      0x223d2 (size before relaxing)
 .debug_str     0x0000000000008678     0x495c common/built-in.o
                                      0x300df (size before relaxing)
 .debug_str     0x000000000000cfd4      0xb59 disk/built-in.o
                                       0x4222 (size before relaxing)
 .debug_str     0x000000000000db2d     0x1122 drivers/built-in.o
                                       0xf3eb (size before relaxing)
 .debug_str     0x000000000000ec4f      0x520 drivers/gpio/built-in.o
                                       0x2ef4 (size before relaxing)
 .debug_str     0x000000000000f16f      0x6be drivers/mmc/built-in.o
                                       0x47c8 (size before relaxing)
 .debug_str     0x000000000000f82d      0x476 drivers/net/built-in.o
                                       0x227e (size before relaxing)
 .debug_str     0x000000000000fca3      0x1ef drivers/net/phy/built-in.o
                                       0x1860 (size before relaxing)
 .debug_str     0x000000000000fe92      0x49e drivers/serial/built-in.o
                                       0x2d66 (size before relaxing)
 .debug_str     0x0000000000010330      0xe7d drivers/usb/host/built-in.o
                                       0x9798 (size before relaxing)
 .debug_str     0x00000000000111ad      0xfda fs/built-in.o
                                       0x71c3 (size before relaxing)
 .debug_str     0x0000000000012187     0x4390 lib/built-in.o
                                      0x27de6 (size before relaxing)
 .debug_str     0x0000000000016517     0x1333 net/built-in.o
                                       0xc325 (size before relaxing)
 .debug_str     0x000000000001784a       0x79 test/dm/built-in.o
                                        0xb33 (size before relaxing)

.debug_loc      0x0000000000000000    0xd7fd1
 .debug_loc     0x0000000000000000     0x228d arch/arm/cpu/armv8/built-in.o
 .debug_loc     0x000000000000228d      0xf6c arch/arm/lib/built-in.o
 .debug_loc     0x00000000000031f9     0x224c arch/arm/mach-sunxi/built-in.o
 .debug_loc     0x0000000000005445      0x6a3 board/sunxi/built-in.o
 .debug_loc     0x0000000000005ae8    0x1b725 cmd/built-in.o
 .debug_loc     0x000000000002120d    0x319a5 common/built-in.o
 .debug_loc     0x0000000000052bb2     0x5be5 disk/built-in.o
 .debug_loc     0x0000000000058797     0xb61f drivers/built-in.o
 .debug_loc     0x0000000000063db6     0x3fbd drivers/gpio/built-in.o
 .debug_loc     0x0000000000067d73     0x5621 drivers/mmc/built-in.o
 .debug_loc     0x000000000006d394     0x233e drivers/net/built-in.o
 .debug_loc     0x000000000006f6d2     0x2e1d drivers/net/phy/built-in.o
 .debug_loc     0x00000000000724ef     0x166b drivers/serial/built-in.o
 .debug_loc     0x0000000000073b5a     0xcf85 drivers/usb/host/built-in.o
 .debug_loc     0x0000000000080adf     0xe22a fs/built-in.o
 .debug_loc     0x000000000008ed09    0x3f8f0 lib/built-in.o
 .debug_loc     0x00000000000ce5f9     0x9536 net/built-in.o
 .debug_loc     0x00000000000d7b2f      0x4a2 test/dm/built-in.o

.debug_ranges   0x0000000000000000    0x15c30
 .debug_ranges  0x0000000000000000      0x790 arch/arm/cpu/armv8/built-in.o
 .debug_ranges  0x0000000000000790      0x390 arch/arm/lib/built-in.o
 .debug_ranges  0x0000000000000b20      0x5d0 arch/arm/mach-sunxi/built-in.o
 .debug_ranges  0x00000000000010f0      0x110 board/sunxi/built-in.o
 .debug_ranges  0x0000000000001200     0x2c50 cmd/built-in.o
 .debug_ranges  0x0000000000003e50     0x55f0 common/built-in.o
 .debug_ranges  0x0000000000009440      0xe20 disk/built-in.o
 .debug_ranges  0x000000000000a260     0x14b0 drivers/built-in.o
 .debug_ranges  0x000000000000b710      0x540 drivers/gpio/built-in.o
 .debug_ranges  0x000000000000bc50      0x9c0 drivers/mmc/built-in.o
 .debug_ranges  0x000000000000c610      0x450 drivers/net/built-in.o
 .debug_ranges  0x000000000000ca60      0x920 drivers/net/phy/built-in.o
 .debug_ranges  0x000000000000d380      0x380 drivers/serial/built-in.o
 .debug_ranges  0x000000000000d700     0x1380 drivers/usb/host/built-in.o
 .debug_ranges  0x000000000000ea80     0x15c0 fs/built-in.o
 .debug_ranges  0x0000000000010040     0x4580 lib/built-in.o
 .debug_ranges  0x00000000000145c0     0x1620 net/built-in.o
 .debug_ranges  0x0000000000015be0       0x50 test/dm/built-in.o
